
md5.o:     file format elf32-avr


Disassembly of section .text._Z11md5_processP11md5_state_sPKh:

00000000 <_Z11md5_processP11md5_state_sPKh>:
       0:	2f 92       	push	r2
       2:	3f 92       	push	r3
       4:	4f 92       	push	r4
       6:	5f 92       	push	r5
       8:	6f 92       	push	r6
       a:	7f 92       	push	r7
       c:	8f 92       	push	r8
       e:	9f 92       	push	r9
      10:	af 92       	push	r10
      12:	bf 92       	push	r11
      14:	cf 92       	push	r12
      16:	df 92       	push	r13
      18:	ef 92       	push	r14
      1a:	ff 92       	push	r15
      1c:	0f 93       	push	r16
      1e:	1f 93       	push	r17
      20:	cf 93       	push	r28
      22:	df 93       	push	r29
      24:	cd b7       	in	r28, 0x3d	; 61
      26:	de b7       	in	r29, 0x3e	; 62
      28:	ca 55       	subi	r28, 0x5A	; 90
      2a:	d1 09       	sbc	r29, r1
      2c:	0f b6       	in	r0, 0x3f	; 63
      2e:	f8 94       	cli
      30:	de bf       	out	0x3e, r29	; 62
      32:	0f be       	out	0x3f, r0	; 63
      34:	cd bf       	out	0x3d, r28	; 61
      36:	6b 96       	adiw	r28, 0x1b	; 27
      38:	9f af       	std	Y+63, r25	; 0x3f
      3a:	8e af       	std	Y+62, r24	; 0x3e
      3c:	6b 97       	sbiw	r28, 0x1b	; 27
      3e:	1b 01       	movw	r2, r22
      40:	dc 01       	movw	r26, r24
      42:	18 96       	adiw	r26, 0x08	; 8
      44:	4d 90       	ld	r4, X+
      46:	5d 90       	ld	r5, X+
      48:	6d 90       	ld	r6, X+
      4a:	7c 90       	ld	r7, X
      4c:	1b 97       	sbiw	r26, 0x0b	; 11
      4e:	65 96       	adiw	r28, 0x15	; 21
      50:	4c ae       	std	Y+60, r4	; 0x3c
      52:	5d ae       	std	Y+61, r5	; 0x3d
      54:	6e ae       	std	Y+62, r6	; 0x3e
      56:	7f ae       	std	Y+63, r7	; 0x3f
      58:	65 97       	sbiw	r28, 0x15	; 21
      5a:	1c 96       	adiw	r26, 0x0c	; 12
      5c:	4d 90       	ld	r4, X+
      5e:	5d 90       	ld	r5, X+
      60:	6d 90       	ld	r6, X+
      62:	7c 90       	ld	r7, X
      64:	1f 97       	sbiw	r26, 0x0f	; 15
      66:	4d 82       	std	Y+5, r4	; 0x05
      68:	5e 82       	std	Y+6, r5	; 0x06
      6a:	6f 82       	std	Y+7, r6	; 0x07
      6c:	78 86       	std	Y+8, r7	; 0x08
      6e:	50 96       	adiw	r26, 0x10	; 16
      70:	4d 90       	ld	r4, X+
      72:	5d 90       	ld	r5, X+
      74:	6d 90       	ld	r6, X+
      76:	7c 90       	ld	r7, X
      78:	53 97       	sbiw	r26, 0x13	; 19
      7a:	49 86       	std	Y+9, r4	; 0x09
      7c:	5a 86       	std	Y+10, r5	; 0x0a
      7e:	6b 86       	std	Y+11, r6	; 0x0b
      80:	7c 86       	std	Y+12, r7	; 0x0c
      82:	54 96       	adiw	r26, 0x14	; 20
      84:	4d 90       	ld	r4, X+
      86:	5d 90       	ld	r5, X+
      88:	6d 90       	ld	r6, X+
      8a:	7c 90       	ld	r7, X
      8c:	57 97       	sbiw	r26, 0x17	; 23
      8e:	61 96       	adiw	r28, 0x11	; 17
      90:	4c ae       	std	Y+60, r4	; 0x3c
      92:	5d ae       	std	Y+61, r5	; 0x3d
      94:	6e ae       	std	Y+62, r6	; 0x3e
      96:	7f ae       	std	Y+63, r7	; 0x3f
      98:	61 97       	sbiw	r28, 0x11	; 17
      9a:	db 01       	movw	r26, r22
      9c:	4d 90       	ld	r4, X+
      9e:	5d 90       	ld	r5, X+
      a0:	6d 90       	ld	r6, X+
      a2:	7c 90       	ld	r7, X
      a4:	4d 86       	std	Y+13, r4	; 0x0d
      a6:	5e 86       	std	Y+14, r5	; 0x0e
      a8:	6f 86       	std	Y+15, r6	; 0x0f
      aa:	78 8a       	std	Y+16, r7	; 0x10
      ac:	65 96       	adiw	r28, 0x15	; 21
      ae:	0c ad       	ldd	r16, Y+60	; 0x3c
      b0:	1d ad       	ldd	r17, Y+61	; 0x3d
      b2:	2e ad       	ldd	r18, Y+62	; 0x3e
      b4:	3f ad       	ldd	r19, Y+63	; 0x3f
      b6:	65 97       	sbiw	r28, 0x15	; 21
      b8:	08 58       	subi	r16, 0x88	; 136
      ba:	1b 45       	sbci	r17, 0x5B	; 91
      bc:	25 49       	sbci	r18, 0x95	; 149
      be:	38 42       	sbci	r19, 0x28	; 40
      c0:	8d 81       	ldd	r24, Y+5	; 0x05
      c2:	9e 81       	ldd	r25, Y+6	; 0x06
      c4:	af 81       	ldd	r26, Y+7	; 0x07
      c6:	b8 85       	ldd	r27, Y+8	; 0x08
      c8:	80 95       	com	r24
      ca:	90 95       	com	r25
      cc:	a0 95       	com	r26
      ce:	b0 95       	com	r27
      d0:	61 96       	adiw	r28, 0x11	; 17
      d2:	4c ac       	ldd	r4, Y+60	; 0x3c
      d4:	5d ac       	ldd	r5, Y+61	; 0x3d
      d6:	6e ac       	ldd	r6, Y+62	; 0x3e
      d8:	7f ac       	ldd	r7, Y+63	; 0x3f
      da:	61 97       	sbiw	r28, 0x11	; 17
      dc:	84 21       	and	r24, r4
      de:	95 21       	and	r25, r5
      e0:	a6 21       	and	r26, r6
      e2:	b7 21       	and	r27, r7
      e4:	49 85       	ldd	r20, Y+9	; 0x09
      e6:	5a 85       	ldd	r21, Y+10	; 0x0a
      e8:	6b 85       	ldd	r22, Y+11	; 0x0b
      ea:	7c 85       	ldd	r23, Y+12	; 0x0c
      ec:	6d 80       	ldd	r6, Y+5	; 0x05
      ee:	7e 80       	ldd	r7, Y+6	; 0x06
      f0:	8f 80       	ldd	r8, Y+7	; 0x07
      f2:	98 84       	ldd	r9, Y+8	; 0x08
      f4:	46 21       	and	r20, r6
      f6:	57 21       	and	r21, r7
      f8:	68 21       	and	r22, r8
      fa:	79 21       	and	r23, r9
      fc:	84 2b       	or	r24, r20
      fe:	95 2b       	or	r25, r21
     100:	a6 2b       	or	r26, r22
     102:	b7 2b       	or	r27, r23
     104:	08 0f       	add	r16, r24
     106:	19 1f       	adc	r17, r25
     108:	2a 1f       	adc	r18, r26
     10a:	3b 1f       	adc	r19, r27
     10c:	8d 84       	ldd	r8, Y+13	; 0x0d
     10e:	9e 84       	ldd	r9, Y+14	; 0x0e
     110:	af 84       	ldd	r10, Y+15	; 0x0f
     112:	b8 88       	ldd	r11, Y+16	; 0x10
     114:	08 0d       	add	r16, r8
     116:	19 1d       	adc	r17, r9
     118:	2a 1d       	adc	r18, r10
     11a:	3b 1d       	adc	r19, r11
     11c:	d9 01       	movw	r26, r18
     11e:	c8 01       	movw	r24, r16
     120:	47 e0       	ldi	r20, 0x07	; 7
     122:	88 0f       	add	r24, r24
     124:	99 1f       	adc	r25, r25
     126:	aa 1f       	adc	r26, r26
     128:	bb 1f       	adc	r27, r27
     12a:	4a 95       	dec	r20
     12c:	01 f4       	brne	.+0      	; 0x12e <_Z11md5_processP11md5_state_sPKh+0x12e>
     12e:	59 e1       	ldi	r21, 0x19	; 25
     130:	36 95       	lsr	r19
     132:	27 95       	ror	r18
     134:	17 95       	ror	r17
     136:	07 95       	ror	r16
     138:	5a 95       	dec	r21
     13a:	01 f4       	brne	.+0      	; 0x13c <_Z11md5_processP11md5_state_sPKh+0x13c>
     13c:	08 2b       	or	r16, r24
     13e:	19 2b       	or	r17, r25
     140:	2a 2b       	or	r18, r26
     142:	3b 2b       	or	r19, r27
     144:	ad 80       	ldd	r10, Y+5	; 0x05
     146:	be 80       	ldd	r11, Y+6	; 0x06
     148:	cf 80       	ldd	r12, Y+7	; 0x07
     14a:	d8 84       	ldd	r13, Y+8	; 0x08
     14c:	0a 0d       	add	r16, r10
     14e:	1b 1d       	adc	r17, r11
     150:	2c 1d       	adc	r18, r12
     152:	3d 1d       	adc	r19, r13
     154:	d1 01       	movw	r26, r2
     156:	14 96       	adiw	r26, 0x04	; 4
     158:	cd 90       	ld	r12, X+
     15a:	dd 90       	ld	r13, X+
     15c:	ed 90       	ld	r14, X+
     15e:	fc 90       	ld	r15, X
     160:	17 97       	sbiw	r26, 0x07	; 7
     162:	c9 8a       	std	Y+17, r12	; 0x11
     164:	da 8a       	std	Y+18, r13	; 0x12
     166:	eb 8a       	std	Y+19, r14	; 0x13
     168:	fc 8a       	std	Y+20, r15	; 0x14
     16a:	61 96       	adiw	r28, 0x11	; 17
     16c:	cc ac       	ldd	r12, Y+60	; 0x3c
     16e:	dd ac       	ldd	r13, Y+61	; 0x3d
     170:	ee ac       	ldd	r14, Y+62	; 0x3e
     172:	ff ac       	ldd	r15, Y+63	; 0x3f
     174:	61 97       	sbiw	r28, 0x11	; 17
     176:	ba ea       	ldi	r27, 0xAA	; 170
     178:	cb 1a       	sub	r12, r27
     17a:	b8 e4       	ldi	r27, 0x48	; 72
     17c:	db 0a       	sbc	r13, r27
     17e:	b8 e3       	ldi	r27, 0x38	; 56
     180:	eb 0a       	sbc	r14, r27
     182:	b7 e1       	ldi	r27, 0x17	; 23
     184:	fb 0a       	sbc	r15, r27
     186:	49 88       	ldd	r4, Y+17	; 0x11
     188:	5a 88       	ldd	r5, Y+18	; 0x12
     18a:	6b 88       	ldd	r6, Y+19	; 0x13
     18c:	7c 88       	ldd	r7, Y+20	; 0x14
     18e:	c4 0c       	add	r12, r4
     190:	d5 1c       	adc	r13, r5
     192:	e6 1c       	adc	r14, r6
     194:	f7 1c       	adc	r15, r7
     196:	d9 01       	movw	r26, r18
     198:	c8 01       	movw	r24, r16
     19a:	80 95       	com	r24
     19c:	90 95       	com	r25
     19e:	a0 95       	com	r26
     1a0:	b0 95       	com	r27
     1a2:	69 84       	ldd	r6, Y+9	; 0x09
     1a4:	7a 84       	ldd	r7, Y+10	; 0x0a
     1a6:	8b 84       	ldd	r8, Y+11	; 0x0b
     1a8:	9c 84       	ldd	r9, Y+12	; 0x0c
     1aa:	86 21       	and	r24, r6
     1ac:	97 21       	and	r25, r7
     1ae:	a8 21       	and	r26, r8
     1b0:	b9 21       	and	r27, r9
     1b2:	4d 81       	ldd	r20, Y+5	; 0x05
     1b4:	5e 81       	ldd	r21, Y+6	; 0x06
     1b6:	6f 81       	ldd	r22, Y+7	; 0x07
     1b8:	78 85       	ldd	r23, Y+8	; 0x08
     1ba:	40 23       	and	r20, r16
     1bc:	51 23       	and	r21, r17
     1be:	62 23       	and	r22, r18
     1c0:	73 23       	and	r23, r19
     1c2:	84 2b       	or	r24, r20
     1c4:	95 2b       	or	r25, r21
     1c6:	a6 2b       	or	r26, r22
     1c8:	b7 2b       	or	r27, r23
     1ca:	c8 0e       	add	r12, r24
     1cc:	d9 1e       	adc	r13, r25
     1ce:	ea 1e       	adc	r14, r26
     1d0:	fb 1e       	adc	r15, r27
     1d2:	d7 01       	movw	r26, r14
     1d4:	c6 01       	movw	r24, r12
     1d6:	6c e0       	ldi	r22, 0x0C	; 12
     1d8:	88 0f       	add	r24, r24
     1da:	99 1f       	adc	r25, r25
     1dc:	aa 1f       	adc	r26, r26
     1de:	bb 1f       	adc	r27, r27
     1e0:	6a 95       	dec	r22
     1e2:	01 f4       	brne	.+0      	; 0x1e4 <_Z11md5_processP11md5_state_sPKh+0x1e4>
     1e4:	74 e1       	ldi	r23, 0x14	; 20
     1e6:	f6 94       	lsr	r15
     1e8:	e7 94       	ror	r14
     1ea:	d7 94       	ror	r13
     1ec:	c7 94       	ror	r12
     1ee:	7a 95       	dec	r23
     1f0:	01 f4       	brne	.+0      	; 0x1f2 <_Z11md5_processP11md5_state_sPKh+0x1f2>
     1f2:	c8 2a       	or	r12, r24
     1f4:	d9 2a       	or	r13, r25
     1f6:	ea 2a       	or	r14, r26
     1f8:	fb 2a       	or	r15, r27
     1fa:	c0 0e       	add	r12, r16
     1fc:	d1 1e       	adc	r13, r17
     1fe:	e2 1e       	adc	r14, r18
     200:	f3 1e       	adc	r15, r19
     202:	d1 01       	movw	r26, r2
     204:	18 96       	adiw	r26, 0x08	; 8
     206:	8d 90       	ld	r8, X+
     208:	9d 90       	ld	r9, X+
     20a:	ad 90       	ld	r10, X+
     20c:	bc 90       	ld	r11, X
     20e:	1b 97       	sbiw	r26, 0x0b	; 11
     210:	8d 8a       	std	Y+21, r8	; 0x15
     212:	9e 8a       	std	Y+22, r9	; 0x16
     214:	af 8a       	std	Y+23, r10	; 0x17
     216:	b8 8e       	std	Y+24, r11	; 0x18
     218:	49 85       	ldd	r20, Y+9	; 0x09
     21a:	5a 85       	ldd	r21, Y+10	; 0x0a
     21c:	6b 85       	ldd	r22, Y+11	; 0x0b
     21e:	7c 85       	ldd	r23, Y+12	; 0x0c
     220:	45 52       	subi	r20, 0x25	; 37
     222:	5f 48       	sbci	r21, 0x8F	; 143
     224:	6f 4d       	sbci	r22, 0xDF	; 223
     226:	7b 4d       	sbci	r23, 0xDB	; 219
     228:	48 0d       	add	r20, r8
     22a:	59 1d       	adc	r21, r9
     22c:	6a 1d       	adc	r22, r10
     22e:	7b 1d       	adc	r23, r11
     230:	d7 01       	movw	r26, r14
     232:	c6 01       	movw	r24, r12
     234:	80 95       	com	r24
     236:	90 95       	com	r25
     238:	a0 95       	com	r26
     23a:	b0 95       	com	r27
     23c:	4d 80       	ldd	r4, Y+5	; 0x05
     23e:	5e 80       	ldd	r5, Y+6	; 0x06
     240:	6f 80       	ldd	r6, Y+7	; 0x07
     242:	78 84       	ldd	r7, Y+8	; 0x08
     244:	84 21       	and	r24, r4
     246:	95 21       	and	r25, r5
     248:	a6 21       	and	r26, r6
     24a:	b7 21       	and	r27, r7
     24c:	46 01       	movw	r8, r12
     24e:	57 01       	movw	r10, r14
     250:	80 22       	and	r8, r16
     252:	91 22       	and	r9, r17
     254:	a2 22       	and	r10, r18
     256:	b3 22       	and	r11, r19
     258:	88 29       	or	r24, r8
     25a:	99 29       	or	r25, r9
     25c:	aa 29       	or	r26, r10
     25e:	bb 29       	or	r27, r11
     260:	48 0f       	add	r20, r24
     262:	59 1f       	adc	r21, r25
     264:	6a 1f       	adc	r22, r26
     266:	7b 1f       	adc	r23, r27
     268:	db 01       	movw	r26, r22
     26a:	ca 01       	movw	r24, r20
     26c:	e1 e1       	ldi	r30, 0x11	; 17
     26e:	88 0f       	add	r24, r24
     270:	99 1f       	adc	r25, r25
     272:	aa 1f       	adc	r26, r26
     274:	bb 1f       	adc	r27, r27
     276:	ea 95       	dec	r30
     278:	01 f4       	brne	.+0      	; 0x27a <_Z11md5_processP11md5_state_sPKh+0x27a>
     27a:	ff e0       	ldi	r31, 0x0F	; 15
     27c:	76 95       	lsr	r23
     27e:	67 95       	ror	r22
     280:	57 95       	ror	r21
     282:	47 95       	ror	r20
     284:	fa 95       	dec	r31
     286:	01 f4       	brne	.+0      	; 0x288 <_Z11md5_processP11md5_state_sPKh+0x288>
     288:	48 2b       	or	r20, r24
     28a:	59 2b       	or	r21, r25
     28c:	6a 2b       	or	r22, r26
     28e:	7b 2b       	or	r23, r27
     290:	4c 0d       	add	r20, r12
     292:	5d 1d       	adc	r21, r13
     294:	6e 1d       	adc	r22, r14
     296:	7f 1d       	adc	r23, r15
     298:	d1 01       	movw	r26, r2
     29a:	1c 96       	adiw	r26, 0x0c	; 12
     29c:	6d 90       	ld	r6, X+
     29e:	7d 90       	ld	r7, X+
     2a0:	8d 90       	ld	r8, X+
     2a2:	9c 90       	ld	r9, X
     2a4:	1f 97       	sbiw	r26, 0x0f	; 15
     2a6:	69 8e       	std	Y+25, r6	; 0x19
     2a8:	7a 8e       	std	Y+26, r7	; 0x1a
     2aa:	8b 8e       	std	Y+27, r8	; 0x1b
     2ac:	9c 8e       	std	Y+28, r9	; 0x1c
     2ae:	8d 80       	ldd	r8, Y+5	; 0x05
     2b0:	9e 80       	ldd	r9, Y+6	; 0x06
     2b2:	af 80       	ldd	r10, Y+7	; 0x07
     2b4:	b8 84       	ldd	r11, Y+8	; 0x08
     2b6:	b2 e1       	ldi	r27, 0x12	; 18
     2b8:	8b 1a       	sub	r8, r27
     2ba:	b1 e3       	ldi	r27, 0x31	; 49
     2bc:	9b 0a       	sbc	r9, r27
     2be:	b2 e4       	ldi	r27, 0x42	; 66
     2c0:	ab 0a       	sbc	r10, r27
     2c2:	be e3       	ldi	r27, 0x3E	; 62
     2c4:	bb 0a       	sbc	r11, r27
     2c6:	49 8c       	ldd	r4, Y+25	; 0x19
     2c8:	5a 8c       	ldd	r5, Y+26	; 0x1a
     2ca:	6b 8c       	ldd	r6, Y+27	; 0x1b
     2cc:	7c 8c       	ldd	r7, Y+28	; 0x1c
     2ce:	84 0c       	add	r8, r4
     2d0:	95 1c       	adc	r9, r5
     2d2:	a6 1c       	adc	r10, r6
     2d4:	b7 1c       	adc	r11, r7
     2d6:	db 01       	movw	r26, r22
     2d8:	ca 01       	movw	r24, r20
     2da:	80 95       	com	r24
     2dc:	90 95       	com	r25
     2de:	a0 95       	com	r26
     2e0:	b0 95       	com	r27
     2e2:	80 23       	and	r24, r16
     2e4:	91 23       	and	r25, r17
     2e6:	a2 23       	and	r26, r18
     2e8:	b3 23       	and	r27, r19
     2ea:	2a 01       	movw	r4, r20
     2ec:	3b 01       	movw	r6, r22
     2ee:	4c 20       	and	r4, r12
     2f0:	5d 20       	and	r5, r13
     2f2:	6e 20       	and	r6, r14
     2f4:	7f 20       	and	r7, r15
     2f6:	84 29       	or	r24, r4
     2f8:	95 29       	or	r25, r5
     2fa:	a6 29       	or	r26, r6
     2fc:	b7 29       	or	r27, r7
     2fe:	88 0e       	add	r8, r24
     300:	99 1e       	adc	r9, r25
     302:	aa 1e       	adc	r10, r26
     304:	bb 1e       	adc	r11, r27
     306:	d5 01       	movw	r26, r10
     308:	c4 01       	movw	r24, r8
     30a:	e6 e1       	ldi	r30, 0x16	; 22
     30c:	88 0f       	add	r24, r24
     30e:	99 1f       	adc	r25, r25
     310:	aa 1f       	adc	r26, r26
     312:	bb 1f       	adc	r27, r27
     314:	ea 95       	dec	r30
     316:	01 f4       	brne	.+0      	; 0x318 <_Z11md5_processP11md5_state_sPKh+0x318>
     318:	fa e0       	ldi	r31, 0x0A	; 10
     31a:	b6 94       	lsr	r11
     31c:	a7 94       	ror	r10
     31e:	97 94       	ror	r9
     320:	87 94       	ror	r8
     322:	fa 95       	dec	r31
     324:	01 f4       	brne	.+0      	; 0x326 <_Z11md5_processP11md5_state_sPKh+0x326>
     326:	88 2a       	or	r8, r24
     328:	99 2a       	or	r9, r25
     32a:	aa 2a       	or	r10, r26
     32c:	bb 2a       	or	r11, r27
     32e:	84 0e       	add	r8, r20
     330:	95 1e       	adc	r9, r21
     332:	a6 1e       	adc	r10, r22
     334:	b7 1e       	adc	r11, r23
     336:	d1 01       	movw	r26, r2
     338:	50 96       	adiw	r26, 0x10	; 16
     33a:	8d 91       	ld	r24, X+
     33c:	9d 91       	ld	r25, X+
     33e:	0d 90       	ld	r0, X+
     340:	bc 91       	ld	r27, X
     342:	a0 2d       	mov	r26, r0
     344:	8d 8f       	std	Y+29, r24	; 0x1d
     346:	9e 8f       	std	Y+30, r25	; 0x1e
     348:	af 8f       	std	Y+31, r26	; 0x1f
     34a:	b8 a3       	std	Y+32, r27	; 0x20
     34c:	81 55       	subi	r24, 0x51	; 81
     34e:	90 4f       	sbci	r25, 0xF0	; 240
     350:	a3 48       	sbci	r26, 0x83	; 131
     352:	ba 40       	sbci	r27, 0x0A	; 10
     354:	80 0f       	add	r24, r16
     356:	91 1f       	adc	r25, r17
     358:	a2 1f       	adc	r26, r18
     35a:	b3 1f       	adc	r27, r19
     35c:	95 01       	movw	r18, r10
     35e:	84 01       	movw	r16, r8
     360:	00 95       	com	r16
     362:	10 95       	com	r17
     364:	20 95       	com	r18
     366:	30 95       	com	r19
     368:	0c 21       	and	r16, r12
     36a:	1d 21       	and	r17, r13
     36c:	2e 21       	and	r18, r14
     36e:	3f 21       	and	r19, r15
     370:	24 01       	movw	r4, r8
     372:	35 01       	movw	r6, r10
     374:	44 22       	and	r4, r20
     376:	55 22       	and	r5, r21
     378:	66 22       	and	r6, r22
     37a:	77 22       	and	r7, r23
     37c:	04 29       	or	r16, r4
     37e:	15 29       	or	r17, r5
     380:	26 29       	or	r18, r6
     382:	37 29       	or	r19, r7
     384:	80 0f       	add	r24, r16
     386:	91 1f       	adc	r25, r17
     388:	a2 1f       	adc	r26, r18
     38a:	b3 1f       	adc	r27, r19
     38c:	8c 01       	movw	r16, r24
     38e:	9d 01       	movw	r18, r26
     390:	e7 e0       	ldi	r30, 0x07	; 7
     392:	00 0f       	add	r16, r16
     394:	11 1f       	adc	r17, r17
     396:	22 1f       	adc	r18, r18
     398:	33 1f       	adc	r19, r19
     39a:	ea 95       	dec	r30
     39c:	01 f4       	brne	.+0      	; 0x39e <_Z11md5_processP11md5_state_sPKh+0x39e>
     39e:	f9 e1       	ldi	r31, 0x19	; 25
     3a0:	b6 95       	lsr	r27
     3a2:	a7 95       	ror	r26
     3a4:	97 95       	ror	r25
     3a6:	87 95       	ror	r24
     3a8:	fa 95       	dec	r31
     3aa:	01 f4       	brne	.+0      	; 0x3ac <_Z11md5_processP11md5_state_sPKh+0x3ac>
     3ac:	80 2b       	or	r24, r16
     3ae:	91 2b       	or	r25, r17
     3b0:	a2 2b       	or	r26, r18
     3b2:	b3 2b       	or	r27, r19
     3b4:	88 0d       	add	r24, r8
     3b6:	99 1d       	adc	r25, r9
     3b8:	aa 1d       	adc	r26, r10
     3ba:	bb 1d       	adc	r27, r11
     3bc:	f1 01       	movw	r30, r2
     3be:	44 88       	ldd	r4, Z+20	; 0x14
     3c0:	55 88       	ldd	r5, Z+21	; 0x15
     3c2:	66 88       	ldd	r6, Z+22	; 0x16
     3c4:	77 88       	ldd	r7, Z+23	; 0x17
     3c6:	49 a2       	std	Y+33, r4	; 0x21
     3c8:	5a a2       	std	Y+34, r5	; 0x22
     3ca:	6b a2       	std	Y+35, r6	; 0x23
     3cc:	7c a2       	std	Y+36, r7	; 0x24
     3ce:	93 01       	movw	r18, r6
     3d0:	82 01       	movw	r16, r4
     3d2:	06 5d       	subi	r16, 0xD6	; 214
     3d4:	19 43       	sbci	r17, 0x39	; 57
     3d6:	28 47       	sbci	r18, 0x78	; 120
     3d8:	38 4b       	sbci	r19, 0xB8	; 184
     3da:	0c 0d       	add	r16, r12
     3dc:	1d 1d       	adc	r17, r13
     3de:	2e 1d       	adc	r18, r14
     3e0:	3f 1d       	adc	r19, r15
     3e2:	6c 01       	movw	r12, r24
     3e4:	7d 01       	movw	r14, r26
     3e6:	c0 94       	com	r12
     3e8:	d0 94       	com	r13
     3ea:	e0 94       	com	r14
     3ec:	f0 94       	com	r15
     3ee:	c4 22       	and	r12, r20
     3f0:	d5 22       	and	r13, r21
     3f2:	e6 22       	and	r14, r22
     3f4:	f7 22       	and	r15, r23
     3f6:	2c 01       	movw	r4, r24
     3f8:	3d 01       	movw	r6, r26
     3fa:	48 20       	and	r4, r8
     3fc:	59 20       	and	r5, r9
     3fe:	6a 20       	and	r6, r10
     400:	7b 20       	and	r7, r11
     402:	c4 28       	or	r12, r4
     404:	d5 28       	or	r13, r5
     406:	e6 28       	or	r14, r6
     408:	f7 28       	or	r15, r7
     40a:	0c 0d       	add	r16, r12
     40c:	1d 1d       	adc	r17, r13
     40e:	2e 1d       	adc	r18, r14
     410:	3f 1d       	adc	r19, r15
     412:	68 01       	movw	r12, r16
     414:	79 01       	movw	r14, r18
     416:	0b 2e       	mov	r0, r27
     418:	bc e0       	ldi	r27, 0x0C	; 12
     41a:	cc 0c       	add	r12, r12
     41c:	dd 1c       	adc	r13, r13
     41e:	ee 1c       	adc	r14, r14
     420:	ff 1c       	adc	r15, r15
     422:	ba 95       	dec	r27
     424:	01 f4       	brne	.+0      	; 0x426 <_Z11md5_processP11md5_state_sPKh+0x426>
     426:	b0 2d       	mov	r27, r0
     428:	0f 2e       	mov	r0, r31
     42a:	f4 e1       	ldi	r31, 0x14	; 20
     42c:	36 95       	lsr	r19
     42e:	27 95       	ror	r18
     430:	17 95       	ror	r17
     432:	07 95       	ror	r16
     434:	fa 95       	dec	r31
     436:	01 f4       	brne	.+0      	; 0x438 <_Z11md5_processP11md5_state_sPKh+0x438>
     438:	f0 2d       	mov	r31, r0
     43a:	0c 29       	or	r16, r12
     43c:	1d 29       	or	r17, r13
     43e:	2e 29       	or	r18, r14
     440:	3f 29       	or	r19, r15
     442:	08 0f       	add	r16, r24
     444:	19 1f       	adc	r17, r25
     446:	2a 1f       	adc	r18, r26
     448:	3b 1f       	adc	r19, r27
     44a:	40 8c       	ldd	r4, Z+24	; 0x18
     44c:	51 8c       	ldd	r5, Z+25	; 0x19
     44e:	62 8c       	ldd	r6, Z+26	; 0x1a
     450:	73 8c       	ldd	r7, Z+27	; 0x1b
     452:	4d a2       	std	Y+37, r4	; 0x25
     454:	5e a2       	std	Y+38, r5	; 0x26
     456:	6f a2       	std	Y+39, r6	; 0x27
     458:	78 a6       	std	Y+40, r7	; 0x28
     45a:	73 01       	movw	r14, r6
     45c:	62 01       	movw	r12, r4
     45e:	fd ee       	ldi	r31, 0xED	; 237
     460:	cf 1a       	sub	r12, r31
     462:	f9 eb       	ldi	r31, 0xB9	; 185
     464:	df 0a       	sbc	r13, r31
     466:	ff ec       	ldi	r31, 0xCF	; 207
     468:	ef 0a       	sbc	r14, r31
     46a:	f7 e5       	ldi	r31, 0x57	; 87
     46c:	ff 0a       	sbc	r15, r31
     46e:	c4 0e       	add	r12, r20
     470:	d5 1e       	adc	r13, r21
     472:	e6 1e       	adc	r14, r22
     474:	f7 1e       	adc	r15, r23
     476:	b9 01       	movw	r22, r18
     478:	a8 01       	movw	r20, r16
     47a:	40 95       	com	r20
     47c:	50 95       	com	r21
     47e:	60 95       	com	r22
     480:	70 95       	com	r23
     482:	48 21       	and	r20, r8
     484:	59 21       	and	r21, r9
     486:	6a 21       	and	r22, r10
     488:	7b 21       	and	r23, r11
     48a:	28 01       	movw	r4, r16
     48c:	39 01       	movw	r6, r18
     48e:	48 22       	and	r4, r24
     490:	59 22       	and	r5, r25
     492:	6a 22       	and	r6, r26
     494:	7b 22       	and	r7, r27
     496:	44 29       	or	r20, r4
     498:	55 29       	or	r21, r5
     49a:	66 29       	or	r22, r6
     49c:	77 29       	or	r23, r7
     49e:	c4 0e       	add	r12, r20
     4a0:	d5 1e       	adc	r13, r21
     4a2:	e6 1e       	adc	r14, r22
     4a4:	f7 1e       	adc	r15, r23
     4a6:	b7 01       	movw	r22, r14
     4a8:	a6 01       	movw	r20, r12
     4aa:	e1 e1       	ldi	r30, 0x11	; 17
     4ac:	44 0f       	add	r20, r20
     4ae:	55 1f       	adc	r21, r21
     4b0:	66 1f       	adc	r22, r22
     4b2:	77 1f       	adc	r23, r23
     4b4:	ea 95       	dec	r30
     4b6:	01 f4       	brne	.+0      	; 0x4b8 <_Z11md5_processP11md5_state_sPKh+0x4b8>
     4b8:	ff e0       	ldi	r31, 0x0F	; 15
     4ba:	f6 94       	lsr	r15
     4bc:	e7 94       	ror	r14
     4be:	d7 94       	ror	r13
     4c0:	c7 94       	ror	r12
     4c2:	fa 95       	dec	r31
     4c4:	01 f4       	brne	.+0      	; 0x4c6 <_Z11md5_processP11md5_state_sPKh+0x4c6>
     4c6:	c4 2a       	or	r12, r20
     4c8:	d5 2a       	or	r13, r21
     4ca:	e6 2a       	or	r14, r22
     4cc:	f7 2a       	or	r15, r23
     4ce:	c0 0e       	add	r12, r16
     4d0:	d1 1e       	adc	r13, r17
     4d2:	e2 1e       	adc	r14, r18
     4d4:	f3 1e       	adc	r15, r19
     4d6:	f1 01       	movw	r30, r2
     4d8:	44 8c       	ldd	r4, Z+28	; 0x1c
     4da:	55 8c       	ldd	r5, Z+29	; 0x1d
     4dc:	66 8c       	ldd	r6, Z+30	; 0x1e
     4de:	77 8c       	ldd	r7, Z+31	; 0x1f
     4e0:	49 a6       	std	Y+41, r4	; 0x29
     4e2:	5a a6       	std	Y+42, r5	; 0x2a
     4e4:	6b a6       	std	Y+43, r6	; 0x2b
     4e6:	7c a6       	std	Y+44, r7	; 0x2c
     4e8:	b3 01       	movw	r22, r6
     4ea:	a2 01       	movw	r20, r4
     4ec:	4f 5f       	subi	r20, 0xFF	; 255
     4ee:	5a 46       	sbci	r21, 0x6A	; 106
     4f0:	69 4b       	sbci	r22, 0xB9	; 185
     4f2:	72 40       	sbci	r23, 0x02	; 2
     4f4:	48 0d       	add	r20, r8
     4f6:	59 1d       	adc	r21, r9
     4f8:	6a 1d       	adc	r22, r10
     4fa:	7b 1d       	adc	r23, r11
     4fc:	46 01       	movw	r8, r12
     4fe:	57 01       	movw	r10, r14
     500:	80 94       	com	r8
     502:	90 94       	com	r9
     504:	a0 94       	com	r10
     506:	b0 94       	com	r11
     508:	88 22       	and	r8, r24
     50a:	99 22       	and	r9, r25
     50c:	aa 22       	and	r10, r26
     50e:	bb 22       	and	r11, r27
     510:	26 01       	movw	r4, r12
     512:	37 01       	movw	r6, r14
     514:	40 22       	and	r4, r16
     516:	51 22       	and	r5, r17
     518:	62 22       	and	r6, r18
     51a:	73 22       	and	r7, r19
     51c:	84 28       	or	r8, r4
     51e:	95 28       	or	r9, r5
     520:	a6 28       	or	r10, r6
     522:	b7 28       	or	r11, r7
     524:	48 0d       	add	r20, r8
     526:	59 1d       	adc	r21, r9
     528:	6a 1d       	adc	r22, r10
     52a:	7b 1d       	adc	r23, r11
     52c:	4a 01       	movw	r8, r20
     52e:	5b 01       	movw	r10, r22
     530:	07 2e       	mov	r0, r23
     532:	76 e1       	ldi	r23, 0x16	; 22
     534:	88 0c       	add	r8, r8
     536:	99 1c       	adc	r9, r9
     538:	aa 1c       	adc	r10, r10
     53a:	bb 1c       	adc	r11, r11
     53c:	7a 95       	dec	r23
     53e:	01 f4       	brne	.+0      	; 0x540 <_Z11md5_processP11md5_state_sPKh+0x540>
     540:	70 2d       	mov	r23, r0
     542:	03 2e       	mov	r0, r19
     544:	3a e0       	ldi	r19, 0x0A	; 10
     546:	76 95       	lsr	r23
     548:	67 95       	ror	r22
     54a:	57 95       	ror	r21
     54c:	47 95       	ror	r20
     54e:	3a 95       	dec	r19
     550:	01 f4       	brne	.+0      	; 0x552 <_Z11md5_processP11md5_state_sPKh+0x552>
     552:	30 2d       	mov	r19, r0
     554:	48 29       	or	r20, r8
     556:	59 29       	or	r21, r9
     558:	6a 29       	or	r22, r10
     55a:	7b 29       	or	r23, r11
     55c:	4c 0d       	add	r20, r12
     55e:	5d 1d       	adc	r21, r13
     560:	6e 1d       	adc	r22, r14
     562:	7f 1d       	adc	r23, r15
     564:	40 a0       	ldd	r4, Z+32	; 0x20
     566:	51 a0       	ldd	r5, Z+33	; 0x21
     568:	62 a0       	ldd	r6, Z+34	; 0x22
     56a:	73 a0       	ldd	r7, Z+35	; 0x23
     56c:	4d a6       	std	Y+45, r4	; 0x2d
     56e:	5e a6       	std	Y+46, r5	; 0x2e
     570:	6f a6       	std	Y+47, r6	; 0x2f
     572:	78 aa       	std	Y+48, r7	; 0x30
     574:	53 01       	movw	r10, r6
     576:	42 01       	movw	r8, r4
     578:	f8 e2       	ldi	r31, 0x28	; 40
     57a:	8f 1a       	sub	r8, r31
     57c:	f7 e6       	ldi	r31, 0x67	; 103
     57e:	9f 0a       	sbc	r9, r31
     580:	ff e7       	ldi	r31, 0x7F	; 127
     582:	af 0a       	sbc	r10, r31
     584:	f6 e9       	ldi	r31, 0x96	; 150
     586:	bf 0a       	sbc	r11, r31
     588:	88 0e       	add	r8, r24
     58a:	99 1e       	adc	r9, r25
     58c:	aa 1e       	adc	r10, r26
     58e:	bb 1e       	adc	r11, r27
     590:	db 01       	movw	r26, r22
     592:	ca 01       	movw	r24, r20
     594:	80 95       	com	r24
     596:	90 95       	com	r25
     598:	a0 95       	com	r26
     59a:	b0 95       	com	r27
     59c:	80 23       	and	r24, r16
     59e:	91 23       	and	r25, r17
     5a0:	a2 23       	and	r26, r18
     5a2:	b3 23       	and	r27, r19
     5a4:	2a 01       	movw	r4, r20
     5a6:	3b 01       	movw	r6, r22
     5a8:	4c 20       	and	r4, r12
     5aa:	5d 20       	and	r5, r13
     5ac:	6e 20       	and	r6, r14
     5ae:	7f 20       	and	r7, r15
     5b0:	84 29       	or	r24, r4
     5b2:	95 29       	or	r25, r5
     5b4:	a6 29       	or	r26, r6
     5b6:	b7 29       	or	r27, r7
     5b8:	88 0e       	add	r8, r24
     5ba:	99 1e       	adc	r9, r25
     5bc:	aa 1e       	adc	r10, r26
     5be:	bb 1e       	adc	r11, r27
     5c0:	d5 01       	movw	r26, r10
     5c2:	c4 01       	movw	r24, r8
     5c4:	e7 e0       	ldi	r30, 0x07	; 7
     5c6:	88 0f       	add	r24, r24
     5c8:	99 1f       	adc	r25, r25
     5ca:	aa 1f       	adc	r26, r26
     5cc:	bb 1f       	adc	r27, r27
     5ce:	ea 95       	dec	r30
     5d0:	01 f4       	brne	.+0      	; 0x5d2 <_Z11md5_processP11md5_state_sPKh+0x5d2>
     5d2:	f9 e1       	ldi	r31, 0x19	; 25
     5d4:	b6 94       	lsr	r11
     5d6:	a7 94       	ror	r10
     5d8:	97 94       	ror	r9
     5da:	87 94       	ror	r8
     5dc:	fa 95       	dec	r31
     5de:	01 f4       	brne	.+0      	; 0x5e0 <_Z11md5_processP11md5_state_sPKh+0x5e0>
     5e0:	88 2a       	or	r8, r24
     5e2:	99 2a       	or	r9, r25
     5e4:	aa 2a       	or	r10, r26
     5e6:	bb 2a       	or	r11, r27
     5e8:	84 0e       	add	r8, r20
     5ea:	95 1e       	adc	r9, r21
     5ec:	a6 1e       	adc	r10, r22
     5ee:	b7 1e       	adc	r11, r23
     5f0:	d1 01       	movw	r26, r2
     5f2:	94 96       	adiw	r26, 0x24	; 36
     5f4:	4d 90       	ld	r4, X+
     5f6:	5d 90       	ld	r5, X+
     5f8:	6d 90       	ld	r6, X+
     5fa:	7c 90       	ld	r7, X
     5fc:	97 97       	sbiw	r26, 0x27	; 39
     5fe:	49 aa       	std	Y+49, r4	; 0x31
     600:	5a aa       	std	Y+50, r5	; 0x32
     602:	6b aa       	std	Y+51, r6	; 0x33
     604:	7c aa       	std	Y+52, r7	; 0x34
     606:	d3 01       	movw	r26, r6
     608:	c2 01       	movw	r24, r4
     60a:	81 55       	subi	r24, 0x51	; 81
     60c:	98 40       	sbci	r25, 0x08	; 8
     60e:	ab 4b       	sbci	r26, 0xBB	; 187
     610:	b4 47       	sbci	r27, 0x74	; 116
     612:	80 0f       	add	r24, r16
     614:	91 1f       	adc	r25, r17
     616:	a2 1f       	adc	r26, r18
     618:	b3 1f       	adc	r27, r19
     61a:	95 01       	movw	r18, r10
     61c:	84 01       	movw	r16, r8
     61e:	00 95       	com	r16
     620:	10 95       	com	r17
     622:	20 95       	com	r18
     624:	30 95       	com	r19
     626:	0c 21       	and	r16, r12
     628:	1d 21       	and	r17, r13
     62a:	2e 21       	and	r18, r14
     62c:	3f 21       	and	r19, r15
     62e:	24 01       	movw	r4, r8
     630:	35 01       	movw	r6, r10
     632:	44 22       	and	r4, r20
     634:	55 22       	and	r5, r21
     636:	66 22       	and	r6, r22
     638:	77 22       	and	r7, r23
     63a:	04 29       	or	r16, r4
     63c:	15 29       	or	r17, r5
     63e:	26 29       	or	r18, r6
     640:	37 29       	or	r19, r7
     642:	80 0f       	add	r24, r16
     644:	91 1f       	adc	r25, r17
     646:	a2 1f       	adc	r26, r18
     648:	b3 1f       	adc	r27, r19
     64a:	8c 01       	movw	r16, r24
     64c:	9d 01       	movw	r18, r26
     64e:	ec e0       	ldi	r30, 0x0C	; 12
     650:	00 0f       	add	r16, r16
     652:	11 1f       	adc	r17, r17
     654:	22 1f       	adc	r18, r18
     656:	33 1f       	adc	r19, r19
     658:	ea 95       	dec	r30
     65a:	01 f4       	brne	.+0      	; 0x65c <_Z11md5_processP11md5_state_sPKh+0x65c>
     65c:	f4 e1       	ldi	r31, 0x14	; 20
     65e:	b6 95       	lsr	r27
     660:	a7 95       	ror	r26
     662:	97 95       	ror	r25
     664:	87 95       	ror	r24
     666:	fa 95       	dec	r31
     668:	01 f4       	brne	.+0      	; 0x66a <_Z11md5_processP11md5_state_sPKh+0x66a>
     66a:	80 2b       	or	r24, r16
     66c:	91 2b       	or	r25, r17
     66e:	a2 2b       	or	r26, r18
     670:	b3 2b       	or	r27, r19
     672:	88 0d       	add	r24, r8
     674:	99 1d       	adc	r25, r9
     676:	aa 1d       	adc	r26, r10
     678:	bb 1d       	adc	r27, r11
     67a:	f1 01       	movw	r30, r2
     67c:	40 a4       	ldd	r4, Z+40	; 0x28
     67e:	51 a4       	ldd	r5, Z+41	; 0x29
     680:	62 a4       	ldd	r6, Z+42	; 0x2a
     682:	73 a4       	ldd	r7, Z+43	; 0x2b
     684:	4d aa       	std	Y+53, r4	; 0x35
     686:	5e aa       	std	Y+54, r5	; 0x36
     688:	6f aa       	std	Y+55, r6	; 0x37
     68a:	78 ae       	std	Y+56, r7	; 0x38
     68c:	93 01       	movw	r18, r6
     68e:	82 01       	movw	r16, r4
     690:	0f 54       	subi	r16, 0x4F	; 79
     692:	14 4a       	sbci	r17, 0xA4	; 164
     694:	21 09       	sbc	r18, r1
     696:	31 09       	sbc	r19, r1
     698:	0c 0d       	add	r16, r12
     69a:	1d 1d       	adc	r17, r13
     69c:	2e 1d       	adc	r18, r14
     69e:	3f 1d       	adc	r19, r15
     6a0:	6c 01       	movw	r12, r24
     6a2:	7d 01       	movw	r14, r26
     6a4:	c0 94       	com	r12
     6a6:	d0 94       	com	r13
     6a8:	e0 94       	com	r14
     6aa:	f0 94       	com	r15
     6ac:	c4 22       	and	r12, r20
     6ae:	d5 22       	and	r13, r21
     6b0:	e6 22       	and	r14, r22
     6b2:	f7 22       	and	r15, r23
     6b4:	2c 01       	movw	r4, r24
     6b6:	3d 01       	movw	r6, r26
     6b8:	48 20       	and	r4, r8
     6ba:	59 20       	and	r5, r9
     6bc:	6a 20       	and	r6, r10
     6be:	7b 20       	and	r7, r11
     6c0:	c4 28       	or	r12, r4
     6c2:	d5 28       	or	r13, r5
     6c4:	e6 28       	or	r14, r6
     6c6:	f7 28       	or	r15, r7
     6c8:	0c 0d       	add	r16, r12
     6ca:	1d 1d       	adc	r17, r13
     6cc:	2e 1d       	adc	r18, r14
     6ce:	3f 1d       	adc	r19, r15
     6d0:	68 01       	movw	r12, r16
     6d2:	79 01       	movw	r14, r18
     6d4:	0b 2e       	mov	r0, r27
     6d6:	b1 e1       	ldi	r27, 0x11	; 17
     6d8:	cc 0c       	add	r12, r12
     6da:	dd 1c       	adc	r13, r13
     6dc:	ee 1c       	adc	r14, r14
     6de:	ff 1c       	adc	r15, r15
     6e0:	ba 95       	dec	r27
     6e2:	01 f4       	brne	.+0      	; 0x6e4 <_Z11md5_processP11md5_state_sPKh+0x6e4>
     6e4:	b0 2d       	mov	r27, r0
     6e6:	0f 2e       	mov	r0, r31
     6e8:	ff e0       	ldi	r31, 0x0F	; 15
     6ea:	36 95       	lsr	r19
     6ec:	27 95       	ror	r18
     6ee:	17 95       	ror	r17
     6f0:	07 95       	ror	r16
     6f2:	fa 95       	dec	r31
     6f4:	01 f4       	brne	.+0      	; 0x6f6 <_Z11md5_processP11md5_state_sPKh+0x6f6>
     6f6:	f0 2d       	mov	r31, r0
     6f8:	0c 29       	or	r16, r12
     6fa:	1d 29       	or	r17, r13
     6fc:	2e 29       	or	r18, r14
     6fe:	3f 29       	or	r19, r15
     700:	08 0f       	add	r16, r24
     702:	19 1f       	adc	r17, r25
     704:	2a 1f       	adc	r18, r26
     706:	3b 1f       	adc	r19, r27
     708:	44 a4       	ldd	r4, Z+44	; 0x2c
     70a:	55 a4       	ldd	r5, Z+45	; 0x2d
     70c:	66 a4       	ldd	r6, Z+46	; 0x2e
     70e:	77 a4       	ldd	r7, Z+47	; 0x2f
     710:	49 ae       	std	Y+57, r4	; 0x39
     712:	5a ae       	std	Y+58, r5	; 0x3a
     714:	6b ae       	std	Y+59, r6	; 0x3b
     716:	7c ae       	std	Y+60, r7	; 0x3c
     718:	73 01       	movw	r14, r6
     71a:	62 01       	movw	r12, r4
     71c:	f2 e4       	ldi	r31, 0x42	; 66
     71e:	cf 1a       	sub	r12, r31
     720:	f8 e2       	ldi	r31, 0x28	; 40
     722:	df 0a       	sbc	r13, r31
     724:	f3 ea       	ldi	r31, 0xA3	; 163
     726:	ef 0a       	sbc	r14, r31
     728:	f6 e7       	ldi	r31, 0x76	; 118
     72a:	ff 0a       	sbc	r15, r31
     72c:	c4 0e       	add	r12, r20
     72e:	d5 1e       	adc	r13, r21
     730:	e6 1e       	adc	r14, r22
     732:	f7 1e       	adc	r15, r23
     734:	b9 01       	movw	r22, r18
     736:	a8 01       	movw	r20, r16
     738:	40 95       	com	r20
     73a:	50 95       	com	r21
     73c:	60 95       	com	r22
     73e:	70 95       	com	r23
     740:	48 21       	and	r20, r8
     742:	59 21       	and	r21, r9
     744:	6a 21       	and	r22, r10
     746:	7b 21       	and	r23, r11
     748:	28 01       	movw	r4, r16
     74a:	39 01       	movw	r6, r18
     74c:	48 22       	and	r4, r24
     74e:	59 22       	and	r5, r25
     750:	6a 22       	and	r6, r26
     752:	7b 22       	and	r7, r27
     754:	44 29       	or	r20, r4
     756:	55 29       	or	r21, r5
     758:	66 29       	or	r22, r6
     75a:	77 29       	or	r23, r7
     75c:	c4 0e       	add	r12, r20
     75e:	d5 1e       	adc	r13, r21
     760:	e6 1e       	adc	r14, r22
     762:	f7 1e       	adc	r15, r23
     764:	b7 01       	movw	r22, r14
     766:	a6 01       	movw	r20, r12
     768:	e6 e1       	ldi	r30, 0x16	; 22
     76a:	44 0f       	add	r20, r20
     76c:	55 1f       	adc	r21, r21
     76e:	66 1f       	adc	r22, r22
     770:	77 1f       	adc	r23, r23
     772:	ea 95       	dec	r30
     774:	01 f4       	brne	.+0      	; 0x776 <_Z11md5_processP11md5_state_sPKh+0x776>
     776:	fa e0       	ldi	r31, 0x0A	; 10
     778:	f6 94       	lsr	r15
     77a:	e7 94       	ror	r14
     77c:	d7 94       	ror	r13
     77e:	c7 94       	ror	r12
     780:	fa 95       	dec	r31
     782:	01 f4       	brne	.+0      	; 0x784 <_Z11md5_processP11md5_state_sPKh+0x784>
     784:	c4 2a       	or	r12, r20
     786:	d5 2a       	or	r13, r21
     788:	e6 2a       	or	r14, r22
     78a:	f7 2a       	or	r15, r23
     78c:	c0 0e       	add	r12, r16
     78e:	d1 1e       	adc	r13, r17
     790:	e2 1e       	adc	r14, r18
     792:	f3 1e       	adc	r15, r19
     794:	f1 01       	movw	r30, r2
     796:	40 a8       	ldd	r4, Z+48	; 0x30
     798:	51 a8       	ldd	r5, Z+49	; 0x31
     79a:	62 a8       	ldd	r6, Z+50	; 0x32
     79c:	73 a8       	ldd	r7, Z+51	; 0x33
     79e:	21 96       	adiw	r28, 0x01	; 1
     7a0:	4c ae       	std	Y+60, r4	; 0x3c
     7a2:	5d ae       	std	Y+61, r5	; 0x3d
     7a4:	6e ae       	std	Y+62, r6	; 0x3e
     7a6:	7f ae       	std	Y+63, r7	; 0x3f
     7a8:	21 97       	sbiw	r28, 0x01	; 1
     7aa:	b3 01       	movw	r22, r6
     7ac:	a2 01       	movw	r20, r4
     7ae:	4e 5d       	subi	r20, 0xDE	; 222
     7b0:	5e 4e       	sbci	r21, 0xEE	; 238
     7b2:	6f 46       	sbci	r22, 0x6F	; 111
     7b4:	74 49       	sbci	r23, 0x94	; 148
     7b6:	48 0d       	add	r20, r8
     7b8:	59 1d       	adc	r21, r9
     7ba:	6a 1d       	adc	r22, r10
     7bc:	7b 1d       	adc	r23, r11
     7be:	46 01       	movw	r8, r12
     7c0:	57 01       	movw	r10, r14
     7c2:	80 94       	com	r8
     7c4:	90 94       	com	r9
     7c6:	a0 94       	com	r10
     7c8:	b0 94       	com	r11
     7ca:	88 22       	and	r8, r24
     7cc:	99 22       	and	r9, r25
     7ce:	aa 22       	and	r10, r26
     7d0:	bb 22       	and	r11, r27
     7d2:	26 01       	movw	r4, r12
     7d4:	37 01       	movw	r6, r14
     7d6:	40 22       	and	r4, r16
     7d8:	51 22       	and	r5, r17
     7da:	62 22       	and	r6, r18
     7dc:	73 22       	and	r7, r19
     7de:	84 28       	or	r8, r4
     7e0:	95 28       	or	r9, r5
     7e2:	a6 28       	or	r10, r6
     7e4:	b7 28       	or	r11, r7
     7e6:	48 0d       	add	r20, r8
     7e8:	59 1d       	adc	r21, r9
     7ea:	6a 1d       	adc	r22, r10
     7ec:	7b 1d       	adc	r23, r11
     7ee:	4a 01       	movw	r8, r20
     7f0:	5b 01       	movw	r10, r22
     7f2:	68 94       	set
     7f4:	16 f8       	bld	r1, 6
     7f6:	88 0c       	add	r8, r8
     7f8:	99 1c       	adc	r9, r9
     7fa:	aa 1c       	adc	r10, r10
     7fc:	bb 1c       	adc	r11, r11
     7fe:	16 94       	lsr	r1
     800:	01 f4       	brne	.+0      	; 0x802 <_Z11md5_processP11md5_state_sPKh+0x802>
     802:	2a 01       	movw	r4, r20
     804:	3b 01       	movw	r6, r22
     806:	49 e1       	ldi	r20, 0x19	; 25
     808:	76 94       	lsr	r7
     80a:	67 94       	ror	r6
     80c:	57 94       	ror	r5
     80e:	47 94       	ror	r4
     810:	4a 95       	dec	r20
     812:	01 f4       	brne	.+0      	; 0x814 <_Z11md5_processP11md5_state_sPKh+0x814>
     814:	48 28       	or	r4, r8
     816:	59 28       	or	r5, r9
     818:	6a 28       	or	r6, r10
     81a:	7b 28       	or	r7, r11
     81c:	4c 0c       	add	r4, r12
     81e:	5d 1c       	adc	r5, r13
     820:	6e 1c       	adc	r6, r14
     822:	7f 1c       	adc	r7, r15
     824:	84 a8       	ldd	r8, Z+52	; 0x34
     826:	95 a8       	ldd	r9, Z+53	; 0x35
     828:	a6 a8       	ldd	r10, Z+54	; 0x36
     82a:	b7 a8       	ldd	r11, Z+55	; 0x37
     82c:	25 96       	adiw	r28, 0x05	; 5
     82e:	8c ae       	std	Y+60, r8	; 0x3c
     830:	9d ae       	std	Y+61, r9	; 0x3d
     832:	ae ae       	std	Y+62, r10	; 0x3e
     834:	bf ae       	std	Y+63, r11	; 0x3f
     836:	25 97       	sbiw	r28, 0x05	; 5
     838:	b5 01       	movw	r22, r10
     83a:	a4 01       	movw	r20, r8
     83c:	4d 56       	subi	r20, 0x6D	; 109
     83e:	5e 48       	sbci	r21, 0x8E	; 142
     840:	67 46       	sbci	r22, 0x67	; 103
     842:	72 40       	sbci	r23, 0x02	; 2
     844:	48 0f       	add	r20, r24
     846:	59 1f       	adc	r21, r25
     848:	6a 1f       	adc	r22, r26
     84a:	7b 1f       	adc	r23, r27
     84c:	d3 01       	movw	r26, r6
     84e:	c2 01       	movw	r24, r4
     850:	80 95       	com	r24
     852:	90 95       	com	r25
     854:	a0 95       	com	r26
     856:	b0 95       	com	r27
     858:	80 23       	and	r24, r16
     85a:	91 23       	and	r25, r17
     85c:	a2 23       	and	r26, r18
     85e:	b3 23       	and	r27, r19
     860:	53 01       	movw	r10, r6
     862:	42 01       	movw	r8, r4
     864:	8c 20       	and	r8, r12
     866:	9d 20       	and	r9, r13
     868:	ae 20       	and	r10, r14
     86a:	bf 20       	and	r11, r15
     86c:	88 29       	or	r24, r8
     86e:	99 29       	or	r25, r9
     870:	aa 29       	or	r26, r10
     872:	bb 29       	or	r27, r11
     874:	48 0f       	add	r20, r24
     876:	59 1f       	adc	r21, r25
     878:	6a 1f       	adc	r22, r26
     87a:	7b 1f       	adc	r23, r27
     87c:	db 01       	movw	r26, r22
     87e:	ca 01       	movw	r24, r20
     880:	07 2e       	mov	r0, r23
     882:	7c e0       	ldi	r23, 0x0C	; 12
     884:	88 0f       	add	r24, r24
     886:	99 1f       	adc	r25, r25
     888:	aa 1f       	adc	r26, r26
     88a:	bb 1f       	adc	r27, r27
     88c:	7a 95       	dec	r23
     88e:	01 f4       	brne	.+0      	; 0x890 <_Z11md5_processP11md5_state_sPKh+0x890>
     890:	70 2d       	mov	r23, r0
     892:	03 2e       	mov	r0, r19
     894:	34 e1       	ldi	r19, 0x14	; 20
     896:	76 95       	lsr	r23
     898:	67 95       	ror	r22
     89a:	57 95       	ror	r21
     89c:	47 95       	ror	r20
     89e:	3a 95       	dec	r19
     8a0:	01 f4       	brne	.+0      	; 0x8a2 <_Z11md5_processP11md5_state_sPKh+0x8a2>
     8a2:	30 2d       	mov	r19, r0
     8a4:	48 2b       	or	r20, r24
     8a6:	59 2b       	or	r21, r25
     8a8:	6a 2b       	or	r22, r26
     8aa:	7b 2b       	or	r23, r27
     8ac:	44 0d       	add	r20, r4
     8ae:	55 1d       	adc	r21, r5
     8b0:	66 1d       	adc	r22, r6
     8b2:	77 1d       	adc	r23, r7
     8b4:	4a 01       	movw	r8, r20
     8b6:	5b 01       	movw	r10, r22
     8b8:	80 94       	com	r8
     8ba:	90 94       	com	r9
     8bc:	a0 94       	com	r10
     8be:	b0 94       	com	r11
     8c0:	89 82       	std	Y+1, r8	; 0x01
     8c2:	9a 82       	std	Y+2, r9	; 0x02
     8c4:	ab 82       	std	Y+3, r10	; 0x03
     8c6:	bc 82       	std	Y+4, r11	; 0x04
     8c8:	80 ad       	ldd	r24, Z+56	; 0x38
     8ca:	91 ad       	ldd	r25, Z+57	; 0x39
     8cc:	a2 ad       	ldd	r26, Z+58	; 0x3a
     8ce:	b3 ad       	ldd	r27, Z+59	; 0x3b
     8d0:	29 96       	adiw	r28, 0x09	; 9
     8d2:	8c af       	std	Y+60, r24	; 0x3c
     8d4:	9d af       	std	Y+61, r25	; 0x3d
     8d6:	ae af       	std	Y+62, r26	; 0x3e
     8d8:	bf af       	std	Y+63, r27	; 0x3f
     8da:	29 97       	sbiw	r28, 0x09	; 9
     8dc:	82 57       	subi	r24, 0x72	; 114
     8de:	9c 4b       	sbci	r25, 0xBC	; 188
     8e0:	a6 48       	sbci	r26, 0x86	; 134
     8e2:	b9 45       	sbci	r27, 0x59	; 89
     8e4:	80 0f       	add	r24, r16
     8e6:	91 1f       	adc	r25, r17
     8e8:	a2 1f       	adc	r26, r18
     8ea:	b3 1f       	adc	r27, r19
     8ec:	95 01       	movw	r18, r10
     8ee:	84 01       	movw	r16, r8
     8f0:	0c 21       	and	r16, r12
     8f2:	1d 21       	and	r17, r13
     8f4:	2e 21       	and	r18, r14
     8f6:	3f 21       	and	r19, r15
     8f8:	4a 01       	movw	r8, r20
     8fa:	5b 01       	movw	r10, r22
     8fc:	84 20       	and	r8, r4
     8fe:	95 20       	and	r9, r5
     900:	a6 20       	and	r10, r6
     902:	b7 20       	and	r11, r7
     904:	08 29       	or	r16, r8
     906:	19 29       	or	r17, r9
     908:	2a 29       	or	r18, r10
     90a:	3b 29       	or	r19, r11
     90c:	80 0f       	add	r24, r16
     90e:	91 1f       	adc	r25, r17
     910:	a2 1f       	adc	r26, r18
     912:	b3 1f       	adc	r27, r19
     914:	8c 01       	movw	r16, r24
     916:	9d 01       	movw	r18, r26
     918:	0f 2e       	mov	r0, r31
     91a:	f1 e1       	ldi	r31, 0x11	; 17
     91c:	00 0f       	add	r16, r16
     91e:	11 1f       	adc	r17, r17
     920:	22 1f       	adc	r18, r18
     922:	33 1f       	adc	r19, r19
     924:	fa 95       	dec	r31
     926:	01 f4       	brne	.+0      	; 0x928 <_Z11md5_processP11md5_state_sPKh+0x928>
     928:	f0 2d       	mov	r31, r0
     92a:	07 2e       	mov	r0, r23
     92c:	7f e0       	ldi	r23, 0x0F	; 15
     92e:	b6 95       	lsr	r27
     930:	a7 95       	ror	r26
     932:	97 95       	ror	r25
     934:	87 95       	ror	r24
     936:	7a 95       	dec	r23
     938:	01 f4       	brne	.+0      	; 0x93a <_Z11md5_processP11md5_state_sPKh+0x93a>
     93a:	70 2d       	mov	r23, r0
     93c:	80 2b       	or	r24, r16
     93e:	91 2b       	or	r25, r17
     940:	a2 2b       	or	r26, r18
     942:	b3 2b       	or	r27, r19
     944:	84 0f       	add	r24, r20
     946:	95 1f       	adc	r25, r21
     948:	a6 1f       	adc	r26, r22
     94a:	b7 1f       	adc	r27, r23
     94c:	4c 01       	movw	r8, r24
     94e:	5d 01       	movw	r10, r26
     950:	80 94       	com	r8
     952:	90 94       	com	r9
     954:	a0 94       	com	r10
     956:	b0 94       	com	r11
     958:	69 96       	adiw	r28, 0x19	; 25
     95a:	8c ae       	std	Y+60, r8	; 0x3c
     95c:	9d ae       	std	Y+61, r9	; 0x3d
     95e:	ae ae       	std	Y+62, r10	; 0x3e
     960:	bf ae       	std	Y+63, r11	; 0x3f
     962:	69 97       	sbiw	r28, 0x19	; 25
     964:	04 ad       	ldd	r16, Z+60	; 0x3c
     966:	15 ad       	ldd	r17, Z+61	; 0x3d
     968:	26 ad       	ldd	r18, Z+62	; 0x3e
     96a:	37 ad       	ldd	r19, Z+63	; 0x3f
     96c:	2d 96       	adiw	r28, 0x0d	; 13
     96e:	0c af       	std	Y+60, r16	; 0x3c
     970:	1d af       	std	Y+61, r17	; 0x3d
     972:	2e af       	std	Y+62, r18	; 0x3e
     974:	3f af       	std	Y+63, r19	; 0x3f
     976:	2d 97       	sbiw	r28, 0x0d	; 13
     978:	0f 5d       	subi	r16, 0xDF	; 223
     97a:	17 4f       	sbci	r17, 0xF7	; 247
     97c:	2b 44       	sbci	r18, 0x4B	; 75
     97e:	36 4b       	sbci	r19, 0xB6	; 182
     980:	0c 0d       	add	r16, r12
     982:	1d 1d       	adc	r17, r13
     984:	2e 1d       	adc	r18, r14
     986:	3f 1d       	adc	r19, r15
     988:	75 01       	movw	r14, r10
     98a:	64 01       	movw	r12, r8
     98c:	c4 20       	and	r12, r4
     98e:	d5 20       	and	r13, r5
     990:	e6 20       	and	r14, r6
     992:	f7 20       	and	r15, r7
     994:	4c 01       	movw	r8, r24
     996:	5d 01       	movw	r10, r26
     998:	84 22       	and	r8, r20
     99a:	95 22       	and	r9, r21
     99c:	a6 22       	and	r10, r22
     99e:	b7 22       	and	r11, r23
     9a0:	c8 28       	or	r12, r8
     9a2:	d9 28       	or	r13, r9
     9a4:	ea 28       	or	r14, r10
     9a6:	fb 28       	or	r15, r11
     9a8:	0c 0d       	add	r16, r12
     9aa:	1d 1d       	adc	r17, r13
     9ac:	2e 1d       	adc	r18, r14
     9ae:	3f 1d       	adc	r19, r15
     9b0:	68 01       	movw	r12, r16
     9b2:	79 01       	movw	r14, r18
     9b4:	e6 e1       	ldi	r30, 0x16	; 22
     9b6:	cc 0c       	add	r12, r12
     9b8:	dd 1c       	adc	r13, r13
     9ba:	ee 1c       	adc	r14, r14
     9bc:	ff 1c       	adc	r15, r15
     9be:	ea 95       	dec	r30
     9c0:	01 f4       	brne	.+0      	; 0x9c2 <_Z11md5_processP11md5_state_sPKh+0x9c2>
     9c2:	fa e0       	ldi	r31, 0x0A	; 10
     9c4:	36 95       	lsr	r19
     9c6:	27 95       	ror	r18
     9c8:	17 95       	ror	r17
     9ca:	07 95       	ror	r16
     9cc:	fa 95       	dec	r31
     9ce:	01 f4       	brne	.+0      	; 0x9d0 <_Z11md5_processP11md5_state_sPKh+0x9d0>
     9d0:	0c 29       	or	r16, r12
     9d2:	1d 29       	or	r17, r13
     9d4:	2e 29       	or	r18, r14
     9d6:	3f 29       	or	r19, r15
     9d8:	08 0f       	add	r16, r24
     9da:	19 1f       	adc	r17, r25
     9dc:	2a 1f       	adc	r18, r26
     9de:	3b 1f       	adc	r19, r27
     9e0:	c9 88       	ldd	r12, Y+17	; 0x11
     9e2:	da 88       	ldd	r13, Y+18	; 0x12
     9e4:	eb 88       	ldd	r14, Y+19	; 0x13
     9e6:	fc 88       	ldd	r15, Y+20	; 0x14
     9e8:	fe e9       	ldi	r31, 0x9E	; 158
     9ea:	cf 1a       	sub	r12, r31
     9ec:	fa ed       	ldi	r31, 0xDA	; 218
     9ee:	df 0a       	sbc	r13, r31
     9f0:	f1 ee       	ldi	r31, 0xE1	; 225
     9f2:	ef 0a       	sbc	r14, r31
     9f4:	f9 e0       	ldi	r31, 0x09	; 9
     9f6:	ff 0a       	sbc	r15, r31
     9f8:	c4 0c       	add	r12, r4
     9fa:	d5 1c       	adc	r13, r5
     9fc:	e6 1c       	adc	r14, r6
     9fe:	f7 1c       	adc	r15, r7
     a00:	48 01       	movw	r8, r16
     a02:	59 01       	movw	r10, r18
     a04:	84 22       	and	r8, r20
     a06:	95 22       	and	r9, r21
     a08:	a6 22       	and	r10, r22
     a0a:	b7 22       	and	r11, r23
     a0c:	49 80       	ldd	r4, Y+1	; 0x01
     a0e:	5a 80       	ldd	r5, Y+2	; 0x02
     a10:	6b 80       	ldd	r6, Y+3	; 0x03
     a12:	7c 80       	ldd	r7, Y+4	; 0x04
     a14:	48 22       	and	r4, r24
     a16:	59 22       	and	r5, r25
     a18:	6a 22       	and	r6, r26
     a1a:	7b 22       	and	r7, r27
     a1c:	84 28       	or	r8, r4
     a1e:	95 28       	or	r9, r5
     a20:	a6 28       	or	r10, r6
     a22:	b7 28       	or	r11, r7
     a24:	c8 0c       	add	r12, r8
     a26:	d9 1c       	adc	r13, r9
     a28:	ea 1c       	adc	r14, r10
     a2a:	fb 1c       	adc	r15, r11
     a2c:	26 01       	movw	r4, r12
     a2e:	37 01       	movw	r6, r14
     a30:	e5 e0       	ldi	r30, 0x05	; 5
     a32:	44 0c       	add	r4, r4
     a34:	55 1c       	adc	r5, r5
     a36:	66 1c       	adc	r6, r6
     a38:	77 1c       	adc	r7, r7
     a3a:	ea 95       	dec	r30
     a3c:	01 f4       	brne	.+0      	; 0xa3e <_Z11md5_processP11md5_state_sPKh+0xa3e>
     a3e:	fb e1       	ldi	r31, 0x1B	; 27
     a40:	f6 94       	lsr	r15
     a42:	e7 94       	ror	r14
     a44:	d7 94       	ror	r13
     a46:	c7 94       	ror	r12
     a48:	fa 95       	dec	r31
     a4a:	01 f4       	brne	.+0      	; 0xa4c <_Z11md5_processP11md5_state_sPKh+0xa4c>
     a4c:	c4 28       	or	r12, r4
     a4e:	d5 28       	or	r13, r5
     a50:	e6 28       	or	r14, r6
     a52:	f7 28       	or	r15, r7
     a54:	c0 0e       	add	r12, r16
     a56:	d1 1e       	adc	r13, r17
     a58:	e2 1e       	adc	r14, r18
     a5a:	f3 1e       	adc	r15, r19
     a5c:	4d a0       	ldd	r4, Y+37	; 0x25
     a5e:	5e a0       	ldd	r5, Y+38	; 0x26
     a60:	6f a0       	ldd	r6, Y+39	; 0x27
     a62:	78 a4       	ldd	r7, Y+40	; 0x28
     a64:	e0 ec       	ldi	r30, 0xC0	; 192
     a66:	4e 1a       	sub	r4, r30
     a68:	ec e4       	ldi	r30, 0x4C	; 76
     a6a:	5e 0a       	sbc	r5, r30
     a6c:	ef eb       	ldi	r30, 0xBF	; 191
     a6e:	6e 0a       	sbc	r6, r30
     a70:	ef e3       	ldi	r30, 0x3F	; 63
     a72:	7e 0a       	sbc	r7, r30
     a74:	44 0e       	add	r4, r20
     a76:	55 1e       	adc	r5, r21
     a78:	66 1e       	adc	r6, r22
     a7a:	77 1e       	adc	r7, r23
     a7c:	b7 01       	movw	r22, r14
     a7e:	a6 01       	movw	r20, r12
     a80:	48 23       	and	r20, r24
     a82:	59 23       	and	r21, r25
     a84:	6a 23       	and	r22, r26
     a86:	7b 23       	and	r23, r27
     a88:	69 96       	adiw	r28, 0x19	; 25
     a8a:	8c ac       	ldd	r8, Y+60	; 0x3c
     a8c:	9d ac       	ldd	r9, Y+61	; 0x3d
     a8e:	ae ac       	ldd	r10, Y+62	; 0x3e
     a90:	bf ac       	ldd	r11, Y+63	; 0x3f
     a92:	69 97       	sbiw	r28, 0x19	; 25
     a94:	80 22       	and	r8, r16
     a96:	91 22       	and	r9, r17
     a98:	a2 22       	and	r10, r18
     a9a:	b3 22       	and	r11, r19
     a9c:	48 29       	or	r20, r8
     a9e:	59 29       	or	r21, r9
     aa0:	6a 29       	or	r22, r10
     aa2:	7b 29       	or	r23, r11
     aa4:	44 0e       	add	r4, r20
     aa6:	55 1e       	adc	r5, r21
     aa8:	66 1e       	adc	r6, r22
     aaa:	77 1e       	adc	r7, r23
     aac:	b3 01       	movw	r22, r6
     aae:	a2 01       	movw	r20, r4
     ab0:	e9 e0       	ldi	r30, 0x09	; 9
     ab2:	44 0f       	add	r20, r20
     ab4:	55 1f       	adc	r21, r21
     ab6:	66 1f       	adc	r22, r22
     ab8:	77 1f       	adc	r23, r23
     aba:	ea 95       	dec	r30
     abc:	01 f4       	brne	.+0      	; 0xabe <_Z11md5_processP11md5_state_sPKh+0xabe>
     abe:	f7 e1       	ldi	r31, 0x17	; 23
     ac0:	76 94       	lsr	r7
     ac2:	67 94       	ror	r6
     ac4:	57 94       	ror	r5
     ac6:	47 94       	ror	r4
     ac8:	fa 95       	dec	r31
     aca:	01 f4       	brne	.+0      	; 0xacc <_Z11md5_processP11md5_state_sPKh+0xacc>
     acc:	44 2a       	or	r4, r20
     ace:	55 2a       	or	r5, r21
     ad0:	66 2a       	or	r6, r22
     ad2:	77 2a       	or	r7, r23
     ad4:	4c 0c       	add	r4, r12
     ad6:	5d 1c       	adc	r5, r13
     ad8:	6e 1c       	adc	r6, r14
     ada:	7f 1c       	adc	r7, r15
     adc:	89 ac       	ldd	r8, Y+57	; 0x39
     ade:	9a ac       	ldd	r9, Y+58	; 0x3a
     ae0:	ab ac       	ldd	r10, Y+59	; 0x3b
     ae2:	bc ac       	ldd	r11, Y+60	; 0x3c
     ae4:	ff ea       	ldi	r31, 0xAF	; 175
     ae6:	8f 1a       	sub	r8, r31
     ae8:	f5 ea       	ldi	r31, 0xA5	; 165
     aea:	9f 0a       	sbc	r9, r31
     aec:	f1 ea       	ldi	r31, 0xA1	; 161
     aee:	af 0a       	sbc	r10, r31
     af0:	f9 ed       	ldi	r31, 0xD9	; 217
     af2:	bf 0a       	sbc	r11, r31
     af4:	88 0e       	add	r8, r24
     af6:	99 1e       	adc	r9, r25
     af8:	aa 1e       	adc	r10, r26
     afa:	bb 1e       	adc	r11, r27
     afc:	d3 01       	movw	r26, r6
     afe:	c2 01       	movw	r24, r4
     b00:	80 23       	and	r24, r16
     b02:	91 23       	and	r25, r17
     b04:	a2 23       	and	r26, r18
     b06:	b3 23       	and	r27, r19
     b08:	b9 01       	movw	r22, r18
     b0a:	a8 01       	movw	r20, r16
     b0c:	40 95       	com	r20
     b0e:	50 95       	com	r21
     b10:	60 95       	com	r22
     b12:	70 95       	com	r23
     b14:	4c 21       	and	r20, r12
     b16:	5d 21       	and	r21, r13
     b18:	6e 21       	and	r22, r14
     b1a:	7f 21       	and	r23, r15
     b1c:	84 2b       	or	r24, r20
     b1e:	95 2b       	or	r25, r21
     b20:	a6 2b       	or	r26, r22
     b22:	b7 2b       	or	r27, r23
     b24:	88 0e       	add	r8, r24
     b26:	99 1e       	adc	r9, r25
     b28:	aa 1e       	adc	r10, r26
     b2a:	bb 1e       	adc	r11, r27
     b2c:	d5 01       	movw	r26, r10
     b2e:	c4 01       	movw	r24, r8
     b30:	4e e0       	ldi	r20, 0x0E	; 14
     b32:	88 0f       	add	r24, r24
     b34:	99 1f       	adc	r25, r25
     b36:	aa 1f       	adc	r26, r26
     b38:	bb 1f       	adc	r27, r27
     b3a:	4a 95       	dec	r20
     b3c:	01 f4       	brne	.+0      	; 0xb3e <_Z11md5_processP11md5_state_sPKh+0xb3e>
     b3e:	52 e1       	ldi	r21, 0x12	; 18
     b40:	b6 94       	lsr	r11
     b42:	a7 94       	ror	r10
     b44:	97 94       	ror	r9
     b46:	87 94       	ror	r8
     b48:	5a 95       	dec	r21
     b4a:	01 f4       	brne	.+0      	; 0xb4c <_Z11md5_processP11md5_state_sPKh+0xb4c>
     b4c:	88 2a       	or	r8, r24
     b4e:	99 2a       	or	r9, r25
     b50:	aa 2a       	or	r10, r26
     b52:	bb 2a       	or	r11, r27
     b54:	84 0c       	add	r8, r4
     b56:	95 1c       	adc	r9, r5
     b58:	a6 1c       	adc	r10, r6
     b5a:	b7 1c       	adc	r11, r7
     b5c:	8d 85       	ldd	r24, Y+13	; 0x0d
     b5e:	9e 85       	ldd	r25, Y+14	; 0x0e
     b60:	af 85       	ldd	r26, Y+15	; 0x0f
     b62:	b8 89       	ldd	r27, Y+16	; 0x10
     b64:	86 55       	subi	r24, 0x56	; 86
     b66:	98 43       	sbci	r25, 0x38	; 56
     b68:	a9 44       	sbci	r26, 0x49	; 73
     b6a:	b6 41       	sbci	r27, 0x16	; 22
     b6c:	80 0f       	add	r24, r16
     b6e:	91 1f       	adc	r25, r17
     b70:	a2 1f       	adc	r26, r18
     b72:	b3 1f       	adc	r27, r19
     b74:	b5 01       	movw	r22, r10
     b76:	a4 01       	movw	r20, r8
     b78:	4c 21       	and	r20, r12
     b7a:	5d 21       	and	r21, r13
     b7c:	6e 21       	and	r22, r14
     b7e:	7f 21       	and	r23, r15
     b80:	97 01       	movw	r18, r14
     b82:	86 01       	movw	r16, r12
     b84:	00 95       	com	r16
     b86:	10 95       	com	r17
     b88:	20 95       	com	r18
     b8a:	30 95       	com	r19
     b8c:	04 21       	and	r16, r4
     b8e:	15 21       	and	r17, r5
     b90:	26 21       	and	r18, r6
     b92:	37 21       	and	r19, r7
     b94:	40 2b       	or	r20, r16
     b96:	51 2b       	or	r21, r17
     b98:	62 2b       	or	r22, r18
     b9a:	73 2b       	or	r23, r19
     b9c:	84 0f       	add	r24, r20
     b9e:	95 1f       	adc	r25, r21
     ba0:	a6 1f       	adc	r26, r22
     ba2:	b7 1f       	adc	r27, r23
     ba4:	ac 01       	movw	r20, r24
     ba6:	bd 01       	movw	r22, r26
     ba8:	e4 e1       	ldi	r30, 0x14	; 20
     baa:	44 0f       	add	r20, r20
     bac:	55 1f       	adc	r21, r21
     bae:	66 1f       	adc	r22, r22
     bb0:	77 1f       	adc	r23, r23
     bb2:	ea 95       	dec	r30
     bb4:	01 f4       	brne	.+0      	; 0xbb6 <_Z11md5_processP11md5_state_sPKh+0xbb6>
     bb6:	8c 01       	movw	r16, r24
     bb8:	9d 01       	movw	r18, r26
     bba:	fc e0       	ldi	r31, 0x0C	; 12
     bbc:	36 95       	lsr	r19
     bbe:	27 95       	ror	r18
     bc0:	17 95       	ror	r17
     bc2:	07 95       	ror	r16
     bc4:	fa 95       	dec	r31
     bc6:	01 f4       	brne	.+0      	; 0xbc8 <_Z11md5_processP11md5_state_sPKh+0xbc8>
     bc8:	04 2b       	or	r16, r20
     bca:	15 2b       	or	r17, r21
     bcc:	26 2b       	or	r18, r22
     bce:	37 2b       	or	r19, r23
     bd0:	08 0d       	add	r16, r8
     bd2:	19 1d       	adc	r17, r9
     bd4:	2a 1d       	adc	r18, r10
     bd6:	3b 1d       	adc	r19, r11
     bd8:	89 a1       	ldd	r24, Y+33	; 0x21
     bda:	9a a1       	ldd	r25, Y+34	; 0x22
     bdc:	ab a1       	ldd	r26, Y+35	; 0x23
     bde:	bc a1       	ldd	r27, Y+36	; 0x24
     be0:	83 5a       	subi	r24, 0xA3	; 163
     be2:	9f 4e       	sbci	r25, 0xEF	; 239
     be4:	a0 4d       	sbci	r26, 0xD0	; 208
     be6:	b9 42       	sbci	r27, 0x29	; 41
     be8:	8c 0d       	add	r24, r12
     bea:	9d 1d       	adc	r25, r13
     bec:	ae 1d       	adc	r26, r14
     bee:	bf 1d       	adc	r27, r15
     bf0:	b9 01       	movw	r22, r18
     bf2:	a8 01       	movw	r20, r16
     bf4:	44 21       	and	r20, r4
     bf6:	55 21       	and	r21, r5
     bf8:	66 21       	and	r22, r6
     bfa:	77 21       	and	r23, r7
     bfc:	73 01       	movw	r14, r6
     bfe:	62 01       	movw	r12, r4
     c00:	c0 94       	com	r12
     c02:	d0 94       	com	r13
     c04:	e0 94       	com	r14
     c06:	f0 94       	com	r15
     c08:	c8 20       	and	r12, r8
     c0a:	d9 20       	and	r13, r9
     c0c:	ea 20       	and	r14, r10
     c0e:	fb 20       	and	r15, r11
     c10:	4c 29       	or	r20, r12
     c12:	5d 29       	or	r21, r13
     c14:	6e 29       	or	r22, r14
     c16:	7f 29       	or	r23, r15
     c18:	84 0f       	add	r24, r20
     c1a:	95 1f       	adc	r25, r21
     c1c:	a6 1f       	adc	r26, r22
     c1e:	b7 1f       	adc	r27, r23
     c20:	ac 01       	movw	r20, r24
     c22:	bd 01       	movw	r22, r26
     c24:	e5 e0       	ldi	r30, 0x05	; 5
     c26:	44 0f       	add	r20, r20
     c28:	55 1f       	adc	r21, r21
     c2a:	66 1f       	adc	r22, r22
     c2c:	77 1f       	adc	r23, r23
     c2e:	ea 95       	dec	r30
     c30:	01 f4       	brne	.+0      	; 0xc32 <_Z11md5_processP11md5_state_sPKh+0xc32>
     c32:	6c 01       	movw	r12, r24
     c34:	7d 01       	movw	r14, r26
     c36:	fb e1       	ldi	r31, 0x1B	; 27
     c38:	f6 94       	lsr	r15
     c3a:	e7 94       	ror	r14
     c3c:	d7 94       	ror	r13
     c3e:	c7 94       	ror	r12
     c40:	fa 95       	dec	r31
     c42:	01 f4       	brne	.+0      	; 0xc44 <_Z11md5_processP11md5_state_sPKh+0xc44>
     c44:	c4 2a       	or	r12, r20
     c46:	d5 2a       	or	r13, r21
     c48:	e6 2a       	or	r14, r22
     c4a:	f7 2a       	or	r15, r23
     c4c:	c0 0e       	add	r12, r16
     c4e:	d1 1e       	adc	r13, r17
     c50:	e2 1e       	adc	r14, r18
     c52:	f3 1e       	adc	r15, r19
     c54:	c9 82       	std	Y+1, r12	; 0x01
     c56:	da 82       	std	Y+2, r13	; 0x02
     c58:	eb 82       	std	Y+3, r14	; 0x03
     c5a:	fc 82       	std	Y+4, r15	; 0x04
     c5c:	4d a9       	ldd	r20, Y+53	; 0x35
     c5e:	5e a9       	ldd	r21, Y+54	; 0x36
     c60:	6f a9       	ldd	r22, Y+55	; 0x37
     c62:	78 ad       	ldd	r23, Y+56	; 0x38
     c64:	4d 5a       	subi	r20, 0xAD	; 173
     c66:	5b 4e       	sbci	r21, 0xEB	; 235
     c68:	6b 4b       	sbci	r22, 0xBB	; 187
     c6a:	7d 4f       	sbci	r23, 0xFD	; 253
     c6c:	44 0d       	add	r20, r4
     c6e:	55 1d       	adc	r21, r5
     c70:	66 1d       	adc	r22, r6
     c72:	77 1d       	adc	r23, r7
     c74:	d7 01       	movw	r26, r14
     c76:	c6 01       	movw	r24, r12
     c78:	88 21       	and	r24, r8
     c7a:	99 21       	and	r25, r9
     c7c:	aa 21       	and	r26, r10
     c7e:	bb 21       	and	r27, r11
     c80:	75 01       	movw	r14, r10
     c82:	64 01       	movw	r12, r8
     c84:	c0 94       	com	r12
     c86:	d0 94       	com	r13
     c88:	e0 94       	com	r14
     c8a:	f0 94       	com	r15
     c8c:	c0 22       	and	r12, r16
     c8e:	d1 22       	and	r13, r17
     c90:	e2 22       	and	r14, r18
     c92:	f3 22       	and	r15, r19
     c94:	8c 29       	or	r24, r12
     c96:	9d 29       	or	r25, r13
     c98:	ae 29       	or	r26, r14
     c9a:	bf 29       	or	r27, r15
     c9c:	48 0f       	add	r20, r24
     c9e:	59 1f       	adc	r21, r25
     ca0:	6a 1f       	adc	r22, r26
     ca2:	7b 1f       	adc	r23, r27
     ca4:	db 01       	movw	r26, r22
     ca6:	ca 01       	movw	r24, r20
     ca8:	e9 e0       	ldi	r30, 0x09	; 9
     caa:	88 0f       	add	r24, r24
     cac:	99 1f       	adc	r25, r25
     cae:	aa 1f       	adc	r26, r26
     cb0:	bb 1f       	adc	r27, r27
     cb2:	ea 95       	dec	r30
     cb4:	01 f4       	brne	.+0      	; 0xcb6 <_Z11md5_processP11md5_state_sPKh+0xcb6>
     cb6:	f7 e1       	ldi	r31, 0x17	; 23
     cb8:	76 95       	lsr	r23
     cba:	67 95       	ror	r22
     cbc:	57 95       	ror	r21
     cbe:	47 95       	ror	r20
     cc0:	fa 95       	dec	r31
     cc2:	01 f4       	brne	.+0      	; 0xcc4 <_Z11md5_processP11md5_state_sPKh+0xcc4>
     cc4:	48 2b       	or	r20, r24
     cc6:	59 2b       	or	r21, r25
     cc8:	6a 2b       	or	r22, r26
     cca:	7b 2b       	or	r23, r27
     ccc:	89 81       	ldd	r24, Y+1	; 0x01
     cce:	9a 81       	ldd	r25, Y+2	; 0x02
     cd0:	ab 81       	ldd	r26, Y+3	; 0x03
     cd2:	bc 81       	ldd	r27, Y+4	; 0x04
     cd4:	48 0f       	add	r20, r24
     cd6:	59 1f       	adc	r21, r25
     cd8:	6a 1f       	adc	r22, r26
     cda:	7b 1f       	adc	r23, r27
     cdc:	2d 96       	adiw	r28, 0x0d	; 13
     cde:	8c ad       	ldd	r24, Y+60	; 0x3c
     ce0:	9d ad       	ldd	r25, Y+61	; 0x3d
     ce2:	ae ad       	ldd	r26, Y+62	; 0x3e
     ce4:	bf ad       	ldd	r27, Y+63	; 0x3f
     ce6:	2d 97       	sbiw	r28, 0x0d	; 13
     ce8:	8f 57       	subi	r24, 0x7F	; 127
     cea:	99 41       	sbci	r25, 0x19	; 25
     cec:	ae 45       	sbci	r26, 0x5E	; 94
     cee:	b7 42       	sbci	r27, 0x27	; 39
     cf0:	88 0d       	add	r24, r8
     cf2:	99 1d       	adc	r25, r9
     cf4:	aa 1d       	adc	r26, r10
     cf6:	bb 1d       	adc	r27, r11
     cf8:	6a 01       	movw	r12, r20
     cfa:	7b 01       	movw	r14, r22
     cfc:	c0 22       	and	r12, r16
     cfe:	d1 22       	and	r13, r17
     d00:	e2 22       	and	r14, r18
     d02:	f3 22       	and	r15, r19
     d04:	48 01       	movw	r8, r16
     d06:	59 01       	movw	r10, r18
     d08:	80 94       	com	r8
     d0a:	90 94       	com	r9
     d0c:	a0 94       	com	r10
     d0e:	b0 94       	com	r11
     d10:	49 80       	ldd	r4, Y+1	; 0x01
     d12:	5a 80       	ldd	r5, Y+2	; 0x02
     d14:	6b 80       	ldd	r6, Y+3	; 0x03
     d16:	7c 80       	ldd	r7, Y+4	; 0x04
     d18:	84 20       	and	r8, r4
     d1a:	95 20       	and	r9, r5
     d1c:	a6 20       	and	r10, r6
     d1e:	b7 20       	and	r11, r7
     d20:	c8 28       	or	r12, r8
     d22:	d9 28       	or	r13, r9
     d24:	ea 28       	or	r14, r10
     d26:	fb 28       	or	r15, r11
     d28:	8c 0d       	add	r24, r12
     d2a:	9d 1d       	adc	r25, r13
     d2c:	ae 1d       	adc	r26, r14
     d2e:	bf 1d       	adc	r27, r15
     d30:	6c 01       	movw	r12, r24
     d32:	7d 01       	movw	r14, r26
     d34:	ee e0       	ldi	r30, 0x0E	; 14
     d36:	cc 0c       	add	r12, r12
     d38:	dd 1c       	adc	r13, r13
     d3a:	ee 1c       	adc	r14, r14
     d3c:	ff 1c       	adc	r15, r15
     d3e:	ea 95       	dec	r30
     d40:	01 f4       	brne	.+0      	; 0xd42 <_Z11md5_processP11md5_state_sPKh+0xd42>
     d42:	f2 e1       	ldi	r31, 0x12	; 18
     d44:	b6 95       	lsr	r27
     d46:	a7 95       	ror	r26
     d48:	97 95       	ror	r25
     d4a:	87 95       	ror	r24
     d4c:	fa 95       	dec	r31
     d4e:	01 f4       	brne	.+0      	; 0xd50 <_Z11md5_processP11md5_state_sPKh+0xd50>
     d50:	8c 29       	or	r24, r12
     d52:	9d 29       	or	r25, r13
     d54:	ae 29       	or	r26, r14
     d56:	bf 29       	or	r27, r15
     d58:	84 0f       	add	r24, r20
     d5a:	95 1f       	adc	r25, r21
     d5c:	a6 1f       	adc	r26, r22
     d5e:	b7 1f       	adc	r27, r23
     d60:	8d 8c       	ldd	r8, Y+29	; 0x1d
     d62:	9e 8c       	ldd	r9, Y+30	; 0x1e
     d64:	af 8c       	ldd	r10, Y+31	; 0x1f
     d66:	b8 a0       	ldd	r11, Y+32	; 0x20
     d68:	e8 e3       	ldi	r30, 0x38	; 56
     d6a:	8e 1a       	sub	r8, r30
     d6c:	e4 e0       	ldi	r30, 0x04	; 4
     d6e:	9e 0a       	sbc	r9, r30
     d70:	ec e2       	ldi	r30, 0x2C	; 44
     d72:	ae 0a       	sbc	r10, r30
     d74:	e8 e1       	ldi	r30, 0x18	; 24
     d76:	be 0a       	sbc	r11, r30
     d78:	80 0e       	add	r8, r16
     d7a:	91 1e       	adc	r9, r17
     d7c:	a2 1e       	adc	r10, r18
     d7e:	b3 1e       	adc	r11, r19
     d80:	93 01       	movw	r18, r6
     d82:	82 01       	movw	r16, r4
     d84:	08 23       	and	r16, r24
     d86:	19 23       	and	r17, r25
     d88:	2a 23       	and	r18, r26
     d8a:	3b 23       	and	r19, r27
     d8c:	73 01       	movw	r14, r6
     d8e:	62 01       	movw	r12, r4
     d90:	c0 94       	com	r12
     d92:	d0 94       	com	r13
     d94:	e0 94       	com	r14
     d96:	f0 94       	com	r15
     d98:	c4 22       	and	r12, r20
     d9a:	d5 22       	and	r13, r21
     d9c:	e6 22       	and	r14, r22
     d9e:	f7 22       	and	r15, r23
     da0:	0c 29       	or	r16, r12
     da2:	1d 29       	or	r17, r13
     da4:	2e 29       	or	r18, r14
     da6:	3f 29       	or	r19, r15
     da8:	80 0e       	add	r8, r16
     daa:	91 1e       	adc	r9, r17
     dac:	a2 1e       	adc	r10, r18
     dae:	b3 1e       	adc	r11, r19
     db0:	95 01       	movw	r18, r10
     db2:	84 01       	movw	r16, r8
     db4:	e4 e1       	ldi	r30, 0x14	; 20
     db6:	00 0f       	add	r16, r16
     db8:	11 1f       	adc	r17, r17
     dba:	22 1f       	adc	r18, r18
     dbc:	33 1f       	adc	r19, r19
     dbe:	ea 95       	dec	r30
     dc0:	01 f4       	brne	.+0      	; 0xdc2 <_Z11md5_processP11md5_state_sPKh+0xdc2>
     dc2:	fc e0       	ldi	r31, 0x0C	; 12
     dc4:	b6 94       	lsr	r11
     dc6:	a7 94       	ror	r10
     dc8:	97 94       	ror	r9
     dca:	87 94       	ror	r8
     dcc:	fa 95       	dec	r31
     dce:	01 f4       	brne	.+0      	; 0xdd0 <_Z11md5_processP11md5_state_sPKh+0xdd0>
     dd0:	80 2a       	or	r8, r16
     dd2:	91 2a       	or	r9, r17
     dd4:	a2 2a       	or	r10, r18
     dd6:	b3 2a       	or	r11, r19
     dd8:	88 0e       	add	r8, r24
     dda:	99 1e       	adc	r9, r25
     ddc:	aa 1e       	adc	r10, r26
     dde:	bb 1e       	adc	r11, r27
     de0:	c9 a8       	ldd	r12, Y+49	; 0x31
     de2:	da a8       	ldd	r13, Y+50	; 0x32
     de4:	eb a8       	ldd	r14, Y+51	; 0x33
     de6:	fc a8       	ldd	r15, Y+52	; 0x34
     de8:	fa e1       	ldi	r31, 0x1A	; 26
     dea:	cf 1a       	sub	r12, r31
     dec:	f2 e3       	ldi	r31, 0x32	; 50
     dee:	df 0a       	sbc	r13, r31
     df0:	fe e1       	ldi	r31, 0x1E	; 30
     df2:	ef 0a       	sbc	r14, r31
     df4:	fe ed       	ldi	r31, 0xDE	; 222
     df6:	ff 0a       	sbc	r15, r31
     df8:	c4 0c       	add	r12, r4
     dfa:	d5 1c       	adc	r13, r5
     dfc:	e6 1c       	adc	r14, r6
     dfe:	f7 1c       	adc	r15, r7
     e00:	95 01       	movw	r18, r10
     e02:	84 01       	movw	r16, r8
     e04:	04 23       	and	r16, r20
     e06:	15 23       	and	r17, r21
     e08:	26 23       	and	r18, r22
     e0a:	37 23       	and	r19, r23
     e0c:	2a 01       	movw	r4, r20
     e0e:	3b 01       	movw	r6, r22
     e10:	40 94       	com	r4
     e12:	50 94       	com	r5
     e14:	60 94       	com	r6
     e16:	70 94       	com	r7
     e18:	48 22       	and	r4, r24
     e1a:	59 22       	and	r5, r25
     e1c:	6a 22       	and	r6, r26
     e1e:	7b 22       	and	r7, r27
     e20:	04 29       	or	r16, r4
     e22:	15 29       	or	r17, r5
     e24:	26 29       	or	r18, r6
     e26:	37 29       	or	r19, r7
     e28:	c0 0e       	add	r12, r16
     e2a:	d1 1e       	adc	r13, r17
     e2c:	e2 1e       	adc	r14, r18
     e2e:	f3 1e       	adc	r15, r19
     e30:	97 01       	movw	r18, r14
     e32:	86 01       	movw	r16, r12
     e34:	e5 e0       	ldi	r30, 0x05	; 5
     e36:	00 0f       	add	r16, r16
     e38:	11 1f       	adc	r17, r17
     e3a:	22 1f       	adc	r18, r18
     e3c:	33 1f       	adc	r19, r19
     e3e:	ea 95       	dec	r30
     e40:	01 f4       	brne	.+0      	; 0xe42 <_Z11md5_processP11md5_state_sPKh+0xe42>
     e42:	fb e1       	ldi	r31, 0x1B	; 27
     e44:	f6 94       	lsr	r15
     e46:	e7 94       	ror	r14
     e48:	d7 94       	ror	r13
     e4a:	c7 94       	ror	r12
     e4c:	fa 95       	dec	r31
     e4e:	01 f4       	brne	.+0      	; 0xe50 <_Z11md5_processP11md5_state_sPKh+0xe50>
     e50:	c0 2a       	or	r12, r16
     e52:	d1 2a       	or	r13, r17
     e54:	e2 2a       	or	r14, r18
     e56:	f3 2a       	or	r15, r19
     e58:	c8 0c       	add	r12, r8
     e5a:	d9 1c       	adc	r13, r9
     e5c:	ea 1c       	adc	r14, r10
     e5e:	fb 1c       	adc	r15, r11
     e60:	29 96       	adiw	r28, 0x09	; 9
     e62:	0c ad       	ldd	r16, Y+60	; 0x3c
     e64:	1d ad       	ldd	r17, Y+61	; 0x3d
     e66:	2e ad       	ldd	r18, Y+62	; 0x3e
     e68:	3f ad       	ldd	r19, Y+63	; 0x3f
     e6a:	29 97       	sbiw	r28, 0x09	; 9
     e6c:	0a 52       	subi	r16, 0x2A	; 42
     e6e:	18 4f       	sbci	r17, 0xF8	; 248
     e70:	28 4c       	sbci	r18, 0xC8	; 200
     e72:	3c 43       	sbci	r19, 0x3C	; 60
     e74:	04 0f       	add	r16, r20
     e76:	15 1f       	adc	r17, r21
     e78:	26 1f       	adc	r18, r22
     e7a:	37 1f       	adc	r19, r23
     e7c:	b7 01       	movw	r22, r14
     e7e:	a6 01       	movw	r20, r12
     e80:	48 23       	and	r20, r24
     e82:	59 23       	and	r21, r25
     e84:	6a 23       	and	r22, r26
     e86:	7b 23       	and	r23, r27
     e88:	2c 01       	movw	r4, r24
     e8a:	3d 01       	movw	r6, r26
     e8c:	40 94       	com	r4
     e8e:	50 94       	com	r5
     e90:	60 94       	com	r6
     e92:	70 94       	com	r7
     e94:	48 20       	and	r4, r8
     e96:	59 20       	and	r5, r9
     e98:	6a 20       	and	r6, r10
     e9a:	7b 20       	and	r7, r11
     e9c:	44 29       	or	r20, r4
     e9e:	55 29       	or	r21, r5
     ea0:	66 29       	or	r22, r6
     ea2:	77 29       	or	r23, r7
     ea4:	04 0f       	add	r16, r20
     ea6:	15 1f       	adc	r17, r21
     ea8:	26 1f       	adc	r18, r22
     eaa:	37 1f       	adc	r19, r23
     eac:	b9 01       	movw	r22, r18
     eae:	a8 01       	movw	r20, r16
     eb0:	e9 e0       	ldi	r30, 0x09	; 9
     eb2:	44 0f       	add	r20, r20
     eb4:	55 1f       	adc	r21, r21
     eb6:	66 1f       	adc	r22, r22
     eb8:	77 1f       	adc	r23, r23
     eba:	ea 95       	dec	r30
     ebc:	01 f4       	brne	.+0      	; 0xebe <_Z11md5_processP11md5_state_sPKh+0xebe>
     ebe:	f7 e1       	ldi	r31, 0x17	; 23
     ec0:	36 95       	lsr	r19
     ec2:	27 95       	ror	r18
     ec4:	17 95       	ror	r17
     ec6:	07 95       	ror	r16
     ec8:	fa 95       	dec	r31
     eca:	01 f4       	brne	.+0      	; 0xecc <_Z11md5_processP11md5_state_sPKh+0xecc>
     ecc:	04 2b       	or	r16, r20
     ece:	15 2b       	or	r17, r21
     ed0:	26 2b       	or	r18, r22
     ed2:	37 2b       	or	r19, r23
     ed4:	0c 0d       	add	r16, r12
     ed6:	1d 1d       	adc	r17, r13
     ed8:	2e 1d       	adc	r18, r14
     eda:	3f 1d       	adc	r19, r15
     edc:	49 8c       	ldd	r4, Y+25	; 0x19
     ede:	5a 8c       	ldd	r5, Y+26	; 0x1a
     ee0:	6b 8c       	ldd	r6, Y+27	; 0x1b
     ee2:	7c 8c       	ldd	r7, Y+28	; 0x1c
     ee4:	49 e7       	ldi	r20, 0x79	; 121
     ee6:	44 1a       	sub	r4, r20
     ee8:	42 ef       	ldi	r20, 0xF2	; 242
     eea:	54 0a       	sbc	r5, r20
     eec:	4a e2       	ldi	r20, 0x2A	; 42
     eee:	64 0a       	sbc	r6, r20
     ef0:	4b e0       	ldi	r20, 0x0B	; 11
     ef2:	74 0a       	sbc	r7, r20
     ef4:	48 0e       	add	r4, r24
     ef6:	59 1e       	adc	r5, r25
     ef8:	6a 1e       	adc	r6, r26
     efa:	7b 1e       	adc	r7, r27
     efc:	d9 01       	movw	r26, r18
     efe:	c8 01       	movw	r24, r16
     f00:	88 21       	and	r24, r8
     f02:	99 21       	and	r25, r9
     f04:	aa 21       	and	r26, r10
     f06:	bb 21       	and	r27, r11
     f08:	b5 01       	movw	r22, r10
     f0a:	a4 01       	movw	r20, r8
     f0c:	40 95       	com	r20
     f0e:	50 95       	com	r21
     f10:	60 95       	com	r22
     f12:	70 95       	com	r23
     f14:	4c 21       	and	r20, r12
     f16:	5d 21       	and	r21, r13
     f18:	6e 21       	and	r22, r14
     f1a:	7f 21       	and	r23, r15
     f1c:	84 2b       	or	r24, r20
     f1e:	95 2b       	or	r25, r21
     f20:	a6 2b       	or	r26, r22
     f22:	b7 2b       	or	r27, r23
     f24:	48 0e       	add	r4, r24
     f26:	59 1e       	adc	r5, r25
     f28:	6a 1e       	adc	r6, r26
     f2a:	7b 1e       	adc	r7, r27
     f2c:	d3 01       	movw	r26, r6
     f2e:	c2 01       	movw	r24, r4
     f30:	4e e0       	ldi	r20, 0x0E	; 14
     f32:	88 0f       	add	r24, r24
     f34:	99 1f       	adc	r25, r25
     f36:	aa 1f       	adc	r26, r26
     f38:	bb 1f       	adc	r27, r27
     f3a:	4a 95       	dec	r20
     f3c:	01 f4       	brne	.+0      	; 0xf3e <_Z11md5_processP11md5_state_sPKh+0xf3e>
     f3e:	52 e1       	ldi	r21, 0x12	; 18
     f40:	76 94       	lsr	r7
     f42:	67 94       	ror	r6
     f44:	57 94       	ror	r5
     f46:	47 94       	ror	r4
     f48:	5a 95       	dec	r21
     f4a:	01 f4       	brne	.+0      	; 0xf4c <_Z11md5_processP11md5_state_sPKh+0xf4c>
     f4c:	48 2a       	or	r4, r24
     f4e:	59 2a       	or	r5, r25
     f50:	6a 2a       	or	r6, r26
     f52:	7b 2a       	or	r7, r27
     f54:	40 0e       	add	r4, r16
     f56:	51 1e       	adc	r5, r17
     f58:	62 1e       	adc	r6, r18
     f5a:	73 1e       	adc	r7, r19
     f5c:	4d a5       	ldd	r20, Y+45	; 0x2d
     f5e:	5e a5       	ldd	r21, Y+46	; 0x2e
     f60:	6f a5       	ldd	r22, Y+47	; 0x2f
     f62:	78 a9       	ldd	r23, Y+48	; 0x30
     f64:	43 51       	subi	r20, 0x13	; 19
     f66:	5b 4e       	sbci	r21, 0xEB	; 235
     f68:	65 4a       	sbci	r22, 0xA5	; 165
     f6a:	7a 4b       	sbci	r23, 0xBA	; 186
     f6c:	48 0d       	add	r20, r8
     f6e:	59 1d       	adc	r21, r9
     f70:	6a 1d       	adc	r22, r10
     f72:	7b 1d       	adc	r23, r11
     f74:	d3 01       	movw	r26, r6
     f76:	c2 01       	movw	r24, r4
     f78:	8c 21       	and	r24, r12
     f7a:	9d 21       	and	r25, r13
     f7c:	ae 21       	and	r26, r14
     f7e:	bf 21       	and	r27, r15
     f80:	46 01       	movw	r8, r12
     f82:	57 01       	movw	r10, r14
     f84:	80 94       	com	r8
     f86:	90 94       	com	r9
     f88:	a0 94       	com	r10
     f8a:	b0 94       	com	r11
     f8c:	80 22       	and	r8, r16
     f8e:	91 22       	and	r9, r17
     f90:	a2 22       	and	r10, r18
     f92:	b3 22       	and	r11, r19
     f94:	88 29       	or	r24, r8
     f96:	99 29       	or	r25, r9
     f98:	aa 29       	or	r26, r10
     f9a:	bb 29       	or	r27, r11
     f9c:	48 0f       	add	r20, r24
     f9e:	59 1f       	adc	r21, r25
     fa0:	6a 1f       	adc	r22, r26
     fa2:	7b 1f       	adc	r23, r27
     fa4:	db 01       	movw	r26, r22
     fa6:	ca 01       	movw	r24, r20
     fa8:	e4 e1       	ldi	r30, 0x14	; 20
     faa:	88 0f       	add	r24, r24
     fac:	99 1f       	adc	r25, r25
     fae:	aa 1f       	adc	r26, r26
     fb0:	bb 1f       	adc	r27, r27
     fb2:	ea 95       	dec	r30
     fb4:	01 f4       	brne	.+0      	; 0xfb6 <_Z11md5_processP11md5_state_sPKh+0xfb6>
     fb6:	fc e0       	ldi	r31, 0x0C	; 12
     fb8:	76 95       	lsr	r23
     fba:	67 95       	ror	r22
     fbc:	57 95       	ror	r21
     fbe:	47 95       	ror	r20
     fc0:	fa 95       	dec	r31
     fc2:	01 f4       	brne	.+0      	; 0xfc4 <_Z11md5_processP11md5_state_sPKh+0xfc4>
     fc4:	48 2b       	or	r20, r24
     fc6:	59 2b       	or	r21, r25
     fc8:	6a 2b       	or	r22, r26
     fca:	7b 2b       	or	r23, r27
     fcc:	44 0d       	add	r20, r4
     fce:	55 1d       	adc	r21, r5
     fd0:	66 1d       	adc	r22, r6
     fd2:	77 1d       	adc	r23, r7
     fd4:	25 96       	adiw	r28, 0x05	; 5
     fd6:	8c ad       	ldd	r24, Y+60	; 0x3c
     fd8:	9d ad       	ldd	r25, Y+61	; 0x3d
     fda:	ae ad       	ldd	r26, Y+62	; 0x3e
     fdc:	bf ad       	ldd	r27, Y+63	; 0x3f
     fde:	25 97       	sbiw	r28, 0x05	; 5
     fe0:	8b 5f       	subi	r24, 0xFB	; 251
     fe2:	96 41       	sbci	r25, 0x16	; 22
     fe4:	ac 41       	sbci	r26, 0x1C	; 28
     fe6:	b6 45       	sbci	r27, 0x56	; 86
     fe8:	8c 0d       	add	r24, r12
     fea:	9d 1d       	adc	r25, r13
     fec:	ae 1d       	adc	r26, r14
     fee:	bf 1d       	adc	r27, r15
     ff0:	6a 01       	movw	r12, r20
     ff2:	7b 01       	movw	r14, r22
     ff4:	c0 22       	and	r12, r16
     ff6:	d1 22       	and	r13, r17
     ff8:	e2 22       	and	r14, r18
     ffa:	f3 22       	and	r15, r19
     ffc:	48 01       	movw	r8, r16
     ffe:	59 01       	movw	r10, r18
    1000:	80 94       	com	r8
    1002:	90 94       	com	r9
    1004:	a0 94       	com	r10
    1006:	b0 94       	com	r11
    1008:	84 20       	and	r8, r4
    100a:	95 20       	and	r9, r5
    100c:	a6 20       	and	r10, r6
    100e:	b7 20       	and	r11, r7
    1010:	c8 28       	or	r12, r8
    1012:	d9 28       	or	r13, r9
    1014:	ea 28       	or	r14, r10
    1016:	fb 28       	or	r15, r11
    1018:	8c 0d       	add	r24, r12
    101a:	9d 1d       	adc	r25, r13
    101c:	ae 1d       	adc	r26, r14
    101e:	bf 1d       	adc	r27, r15
    1020:	6c 01       	movw	r12, r24
    1022:	7d 01       	movw	r14, r26
    1024:	e5 e0       	ldi	r30, 0x05	; 5
    1026:	cc 0c       	add	r12, r12
    1028:	dd 1c       	adc	r13, r13
    102a:	ee 1c       	adc	r14, r14
    102c:	ff 1c       	adc	r15, r15
    102e:	ea 95       	dec	r30
    1030:	01 f4       	brne	.+0      	; 0x1032 <_Z11md5_processP11md5_state_sPKh+0x1032>
    1032:	fb e1       	ldi	r31, 0x1B	; 27
    1034:	b6 95       	lsr	r27
    1036:	a7 95       	ror	r26
    1038:	97 95       	ror	r25
    103a:	87 95       	ror	r24
    103c:	fa 95       	dec	r31
    103e:	01 f4       	brne	.+0      	; 0x1040 <_Z11md5_processP11md5_state_sPKh+0x1040>
    1040:	8c 29       	or	r24, r12
    1042:	9d 29       	or	r25, r13
    1044:	ae 29       	or	r26, r14
    1046:	bf 29       	or	r27, r15
    1048:	84 0f       	add	r24, r20
    104a:	95 1f       	adc	r25, r21
    104c:	a6 1f       	adc	r26, r22
    104e:	b7 1f       	adc	r27, r23
    1050:	cd 88       	ldd	r12, Y+21	; 0x15
    1052:	de 88       	ldd	r13, Y+22	; 0x16
    1054:	ef 88       	ldd	r14, Y+23	; 0x17
    1056:	f8 8c       	ldd	r15, Y+24	; 0x18
    1058:	e8 e0       	ldi	r30, 0x08	; 8
    105a:	ce 1a       	sub	r12, r30
    105c:	ec e5       	ldi	r30, 0x5C	; 92
    105e:	de 0a       	sbc	r13, r30
    1060:	e0 e1       	ldi	r30, 0x10	; 16
    1062:	ee 0a       	sbc	r14, r30
    1064:	e3 e0       	ldi	r30, 0x03	; 3
    1066:	fe 0a       	sbc	r15, r30
    1068:	c0 0e       	add	r12, r16
    106a:	d1 1e       	adc	r13, r17
    106c:	e2 1e       	adc	r14, r18
    106e:	f3 1e       	adc	r15, r19
    1070:	8c 01       	movw	r16, r24
    1072:	9d 01       	movw	r18, r26
    1074:	04 21       	and	r16, r4
    1076:	15 21       	and	r17, r5
    1078:	26 21       	and	r18, r6
    107a:	37 21       	and	r19, r7
    107c:	53 01       	movw	r10, r6
    107e:	42 01       	movw	r8, r4
    1080:	80 94       	com	r8
    1082:	90 94       	com	r9
    1084:	a0 94       	com	r10
    1086:	b0 94       	com	r11
    1088:	84 22       	and	r8, r20
    108a:	95 22       	and	r9, r21
    108c:	a6 22       	and	r10, r22
    108e:	b7 22       	and	r11, r23
    1090:	08 29       	or	r16, r8
    1092:	19 29       	or	r17, r9
    1094:	2a 29       	or	r18, r10
    1096:	3b 29       	or	r19, r11
    1098:	c0 0e       	add	r12, r16
    109a:	d1 1e       	adc	r13, r17
    109c:	e2 1e       	adc	r14, r18
    109e:	f3 1e       	adc	r15, r19
    10a0:	97 01       	movw	r18, r14
    10a2:	86 01       	movw	r16, r12
    10a4:	e9 e0       	ldi	r30, 0x09	; 9
    10a6:	00 0f       	add	r16, r16
    10a8:	11 1f       	adc	r17, r17
    10aa:	22 1f       	adc	r18, r18
    10ac:	33 1f       	adc	r19, r19
    10ae:	ea 95       	dec	r30
    10b0:	01 f4       	brne	.+0      	; 0x10b2 <_Z11md5_processP11md5_state_sPKh+0x10b2>
    10b2:	f7 e1       	ldi	r31, 0x17	; 23
    10b4:	f6 94       	lsr	r15
    10b6:	e7 94       	ror	r14
    10b8:	d7 94       	ror	r13
    10ba:	c7 94       	ror	r12
    10bc:	fa 95       	dec	r31
    10be:	01 f4       	brne	.+0      	; 0x10c0 <_Z11md5_processP11md5_state_sPKh+0x10c0>
    10c0:	c0 2a       	or	r12, r16
    10c2:	d1 2a       	or	r13, r17
    10c4:	e2 2a       	or	r14, r18
    10c6:	f3 2a       	or	r15, r19
    10c8:	c8 0e       	add	r12, r24
    10ca:	d9 1e       	adc	r13, r25
    10cc:	ea 1e       	adc	r14, r26
    10ce:	fb 1e       	adc	r15, r27
    10d0:	09 a5       	ldd	r16, Y+41	; 0x29
    10d2:	1a a5       	ldd	r17, Y+42	; 0x2a
    10d4:	2b a5       	ldd	r18, Y+43	; 0x2b
    10d6:	3c a5       	ldd	r19, Y+44	; 0x2c
    10d8:	07 52       	subi	r16, 0x27	; 39
    10da:	1d 4f       	sbci	r17, 0xFD	; 253
    10dc:	20 49       	sbci	r18, 0x90	; 144
    10de:	38 49       	sbci	r19, 0x98	; 152
    10e0:	04 0d       	add	r16, r4
    10e2:	15 1d       	adc	r17, r5
    10e4:	26 1d       	adc	r18, r6
    10e6:	37 1d       	adc	r19, r7
    10e8:	46 01       	movw	r8, r12
    10ea:	57 01       	movw	r10, r14
    10ec:	84 22       	and	r8, r20
    10ee:	95 22       	and	r9, r21
    10f0:	a6 22       	and	r10, r22
    10f2:	b7 22       	and	r11, r23
    10f4:	2a 01       	movw	r4, r20
    10f6:	3b 01       	movw	r6, r22
    10f8:	40 94       	com	r4
    10fa:	50 94       	com	r5
    10fc:	60 94       	com	r6
    10fe:	70 94       	com	r7
    1100:	48 22       	and	r4, r24
    1102:	59 22       	and	r5, r25
    1104:	6a 22       	and	r6, r26
    1106:	7b 22       	and	r7, r27
    1108:	84 28       	or	r8, r4
    110a:	95 28       	or	r9, r5
    110c:	a6 28       	or	r10, r6
    110e:	b7 28       	or	r11, r7
    1110:	08 0d       	add	r16, r8
    1112:	19 1d       	adc	r17, r9
    1114:	2a 1d       	adc	r18, r10
    1116:	3b 1d       	adc	r19, r11
    1118:	48 01       	movw	r8, r16
    111a:	59 01       	movw	r10, r18
    111c:	ee e0       	ldi	r30, 0x0E	; 14
    111e:	88 0c       	add	r8, r8
    1120:	99 1c       	adc	r9, r9
    1122:	aa 1c       	adc	r10, r10
    1124:	bb 1c       	adc	r11, r11
    1126:	ea 95       	dec	r30
    1128:	01 f4       	brne	.+0      	; 0x112a <_Z11md5_processP11md5_state_sPKh+0x112a>
    112a:	f2 e1       	ldi	r31, 0x12	; 18
    112c:	36 95       	lsr	r19
    112e:	27 95       	ror	r18
    1130:	17 95       	ror	r17
    1132:	07 95       	ror	r16
    1134:	fa 95       	dec	r31
    1136:	01 f4       	brne	.+0      	; 0x1138 <_Z11md5_processP11md5_state_sPKh+0x1138>
    1138:	08 29       	or	r16, r8
    113a:	19 29       	or	r17, r9
    113c:	2a 29       	or	r18, r10
    113e:	3b 29       	or	r19, r11
    1140:	0c 0d       	add	r16, r12
    1142:	1d 1d       	adc	r17, r13
    1144:	2e 1d       	adc	r18, r14
    1146:	3f 1d       	adc	r19, r15
    1148:	21 96       	adiw	r28, 0x01	; 1
    114a:	8c ac       	ldd	r8, Y+60	; 0x3c
    114c:	9d ac       	ldd	r9, Y+61	; 0x3d
    114e:	ae ac       	ldd	r10, Y+62	; 0x3e
    1150:	bf ac       	ldd	r11, Y+63	; 0x3f
    1152:	21 97       	sbiw	r28, 0x01	; 1
    1154:	f6 e7       	ldi	r31, 0x76	; 118
    1156:	8f 1a       	sub	r8, r31
    1158:	f3 eb       	ldi	r31, 0xB3	; 179
    115a:	9f 0a       	sbc	r9, r31
    115c:	f5 ed       	ldi	r31, 0xD5	; 213
    115e:	af 0a       	sbc	r10, r31
    1160:	f2 e7       	ldi	r31, 0x72	; 114
    1162:	bf 0a       	sbc	r11, r31
    1164:	84 0e       	add	r8, r20
    1166:	95 1e       	adc	r9, r21
    1168:	a6 1e       	adc	r10, r22
    116a:	b7 1e       	adc	r11, r23
    116c:	b9 01       	movw	r22, r18
    116e:	a8 01       	movw	r20, r16
    1170:	48 23       	and	r20, r24
    1172:	59 23       	and	r21, r25
    1174:	6a 23       	and	r22, r26
    1176:	7b 23       	and	r23, r27
    1178:	2c 01       	movw	r4, r24
    117a:	3d 01       	movw	r6, r26
    117c:	40 94       	com	r4
    117e:	50 94       	com	r5
    1180:	60 94       	com	r6
    1182:	70 94       	com	r7
    1184:	4c 20       	and	r4, r12
    1186:	5d 20       	and	r5, r13
    1188:	6e 20       	and	r6, r14
    118a:	7f 20       	and	r7, r15
    118c:	44 29       	or	r20, r4
    118e:	55 29       	or	r21, r5
    1190:	66 29       	or	r22, r6
    1192:	77 29       	or	r23, r7
    1194:	84 0e       	add	r8, r20
    1196:	95 1e       	adc	r9, r21
    1198:	a6 1e       	adc	r10, r22
    119a:	b7 1e       	adc	r11, r23
    119c:	b5 01       	movw	r22, r10
    119e:	a4 01       	movw	r20, r8
    11a0:	e4 e1       	ldi	r30, 0x14	; 20
    11a2:	44 0f       	add	r20, r20
    11a4:	55 1f       	adc	r21, r21
    11a6:	66 1f       	adc	r22, r22
    11a8:	77 1f       	adc	r23, r23
    11aa:	ea 95       	dec	r30
    11ac:	01 f4       	brne	.+0      	; 0x11ae <_Z11md5_processP11md5_state_sPKh+0x11ae>
    11ae:	fc e0       	ldi	r31, 0x0C	; 12
    11b0:	b6 94       	lsr	r11
    11b2:	a7 94       	ror	r10
    11b4:	97 94       	ror	r9
    11b6:	87 94       	ror	r8
    11b8:	fa 95       	dec	r31
    11ba:	01 f4       	brne	.+0      	; 0x11bc <_Z11md5_processP11md5_state_sPKh+0x11bc>
    11bc:	84 2a       	or	r8, r20
    11be:	95 2a       	or	r9, r21
    11c0:	a6 2a       	or	r10, r22
    11c2:	b7 2a       	or	r11, r23
    11c4:	80 0e       	add	r8, r16
    11c6:	91 1e       	adc	r9, r17
    11c8:	a2 1e       	adc	r10, r18
    11ca:	b3 1e       	adc	r11, r19
    11cc:	49 a1       	ldd	r20, Y+33	; 0x21
    11ce:	5a a1       	ldd	r21, Y+34	; 0x22
    11d0:	6b a1       	ldd	r22, Y+35	; 0x23
    11d2:	7c a1       	ldd	r23, Y+36	; 0x24
    11d4:	4e 5b       	subi	r20, 0xBE	; 190
    11d6:	56 4c       	sbci	r21, 0xC6	; 198
    11d8:	65 40       	sbci	r22, 0x05	; 5
    11da:	71 09       	sbc	r23, r1
    11dc:	48 0f       	add	r20, r24
    11de:	59 1f       	adc	r21, r25
    11e0:	6a 1f       	adc	r22, r26
    11e2:	7b 1f       	adc	r23, r27
    11e4:	d9 01       	movw	r26, r18
    11e6:	c8 01       	movw	r24, r16
    11e8:	8c 25       	eor	r24, r12
    11ea:	9d 25       	eor	r25, r13
    11ec:	ae 25       	eor	r26, r14
    11ee:	bf 25       	eor	r27, r15
    11f0:	88 25       	eor	r24, r8
    11f2:	99 25       	eor	r25, r9
    11f4:	aa 25       	eor	r26, r10
    11f6:	bb 25       	eor	r27, r11
    11f8:	48 0f       	add	r20, r24
    11fa:	59 1f       	adc	r21, r25
    11fc:	6a 1f       	adc	r22, r26
    11fe:	7b 1f       	adc	r23, r27
    1200:	db 01       	movw	r26, r22
    1202:	ca 01       	movw	r24, r20
    1204:	e4 e0       	ldi	r30, 0x04	; 4
    1206:	88 0f       	add	r24, r24
    1208:	99 1f       	adc	r25, r25
    120a:	aa 1f       	adc	r26, r26
    120c:	bb 1f       	adc	r27, r27
    120e:	ea 95       	dec	r30
    1210:	01 f4       	brne	.+0      	; 0x1212 <_Z11md5_processP11md5_state_sPKh+0x1212>
    1212:	fc e1       	ldi	r31, 0x1C	; 28
    1214:	76 95       	lsr	r23
    1216:	67 95       	ror	r22
    1218:	57 95       	ror	r21
    121a:	47 95       	ror	r20
    121c:	fa 95       	dec	r31
    121e:	01 f4       	brne	.+0      	; 0x1220 <_Z11md5_processP11md5_state_sPKh+0x1220>
    1220:	48 2b       	or	r20, r24
    1222:	59 2b       	or	r21, r25
    1224:	6a 2b       	or	r22, r26
    1226:	7b 2b       	or	r23, r27
    1228:	48 0d       	add	r20, r8
    122a:	59 1d       	adc	r21, r9
    122c:	6a 1d       	adc	r22, r10
    122e:	7b 1d       	adc	r23, r11
    1230:	8d a5       	ldd	r24, Y+45	; 0x2d
    1232:	9e a5       	ldd	r25, Y+46	; 0x2e
    1234:	af a5       	ldd	r26, Y+47	; 0x2f
    1236:	b8 a9       	ldd	r27, Y+48	; 0x30
    1238:	8f 57       	subi	r24, 0x7F	; 127
    123a:	99 40       	sbci	r25, 0x09	; 9
    123c:	ae 48       	sbci	r26, 0x8E	; 142
    123e:	b8 47       	sbci	r27, 0x78	; 120
    1240:	8c 0d       	add	r24, r12
    1242:	9d 1d       	adc	r25, r13
    1244:	ae 1d       	adc	r26, r14
    1246:	bf 1d       	adc	r27, r15
    1248:	75 01       	movw	r14, r10
    124a:	64 01       	movw	r12, r8
    124c:	c0 26       	eor	r12, r16
    124e:	d1 26       	eor	r13, r17
    1250:	e2 26       	eor	r14, r18
    1252:	f3 26       	eor	r15, r19
    1254:	c4 26       	eor	r12, r20
    1256:	d5 26       	eor	r13, r21
    1258:	e6 26       	eor	r14, r22
    125a:	f7 26       	eor	r15, r23
    125c:	8c 0d       	add	r24, r12
    125e:	9d 1d       	adc	r25, r13
    1260:	ae 1d       	adc	r26, r14
    1262:	bf 1d       	adc	r27, r15
    1264:	6c 01       	movw	r12, r24
    1266:	7d 01       	movw	r14, r26
    1268:	eb e0       	ldi	r30, 0x0B	; 11
    126a:	cc 0c       	add	r12, r12
    126c:	dd 1c       	adc	r13, r13
    126e:	ee 1c       	adc	r14, r14
    1270:	ff 1c       	adc	r15, r15
    1272:	ea 95       	dec	r30
    1274:	01 f4       	brne	.+0      	; 0x1276 <_Z11md5_processP11md5_state_sPKh+0x1276>
    1276:	f5 e1       	ldi	r31, 0x15	; 21
    1278:	b6 95       	lsr	r27
    127a:	a7 95       	ror	r26
    127c:	97 95       	ror	r25
    127e:	87 95       	ror	r24
    1280:	fa 95       	dec	r31
    1282:	01 f4       	brne	.+0      	; 0x1284 <_Z11md5_processP11md5_state_sPKh+0x1284>
    1284:	8c 29       	or	r24, r12
    1286:	9d 29       	or	r25, r13
    1288:	ae 29       	or	r26, r14
    128a:	bf 29       	or	r27, r15
    128c:	84 0f       	add	r24, r20
    128e:	95 1f       	adc	r25, r21
    1290:	a6 1f       	adc	r26, r22
    1292:	b7 1f       	adc	r27, r23
    1294:	c9 ac       	ldd	r12, Y+57	; 0x39
    1296:	da ac       	ldd	r13, Y+58	; 0x3a
    1298:	eb ac       	ldd	r14, Y+59	; 0x3b
    129a:	fc ac       	ldd	r15, Y+60	; 0x3c
    129c:	ee ed       	ldi	r30, 0xDE	; 222
    129e:	ce 1a       	sub	r12, r30
    12a0:	ee e9       	ldi	r30, 0x9E	; 158
    12a2:	de 0a       	sbc	r13, r30
    12a4:	e2 e6       	ldi	r30, 0x62	; 98
    12a6:	ee 0a       	sbc	r14, r30
    12a8:	e2 e9       	ldi	r30, 0x92	; 146
    12aa:	fe 0a       	sbc	r15, r30
    12ac:	c0 0e       	add	r12, r16
    12ae:	d1 1e       	adc	r13, r17
    12b0:	e2 1e       	adc	r14, r18
    12b2:	f3 1e       	adc	r15, r19
    12b4:	8a 01       	movw	r16, r20
    12b6:	9b 01       	movw	r18, r22
    12b8:	08 25       	eor	r16, r8
    12ba:	19 25       	eor	r17, r9
    12bc:	2a 25       	eor	r18, r10
    12be:	3b 25       	eor	r19, r11
    12c0:	08 27       	eor	r16, r24
    12c2:	19 27       	eor	r17, r25
    12c4:	2a 27       	eor	r18, r26
    12c6:	3b 27       	eor	r19, r27
    12c8:	c0 0e       	add	r12, r16
    12ca:	d1 1e       	adc	r13, r17
    12cc:	e2 1e       	adc	r14, r18
    12ce:	f3 1e       	adc	r15, r19
    12d0:	96 01       	movw	r18, r12
    12d2:	87 01       	movw	r16, r14
    12d4:	08 0f       	add	r16, r24
    12d6:	19 1f       	adc	r17, r25
    12d8:	2a 1f       	adc	r18, r26
    12da:	3b 1f       	adc	r19, r27
    12dc:	29 96       	adiw	r28, 0x09	; 9
    12de:	cc ac       	ldd	r12, Y+60	; 0x3c
    12e0:	dd ac       	ldd	r13, Y+61	; 0x3d
    12e2:	ee ac       	ldd	r14, Y+62	; 0x3e
    12e4:	ff ac       	ldd	r15, Y+63	; 0x3f
    12e6:	29 97       	sbiw	r28, 0x09	; 9
    12e8:	e4 ef       	ldi	r30, 0xF4	; 244
    12ea:	ce 1a       	sub	r12, r30
    12ec:	e7 ec       	ldi	r30, 0xC7	; 199
    12ee:	de 0a       	sbc	r13, r30
    12f0:	ea e1       	ldi	r30, 0x1A	; 26
    12f2:	ee 0a       	sbc	r14, r30
    12f4:	e2 e0       	ldi	r30, 0x02	; 2
    12f6:	fe 0a       	sbc	r15, r30
    12f8:	c8 0c       	add	r12, r8
    12fa:	d9 1c       	adc	r13, r9
    12fc:	ea 1c       	adc	r14, r10
    12fe:	fb 1c       	adc	r15, r11
    1300:	4c 01       	movw	r8, r24
    1302:	5d 01       	movw	r10, r26
    1304:	84 26       	eor	r8, r20
    1306:	95 26       	eor	r9, r21
    1308:	a6 26       	eor	r10, r22
    130a:	b7 26       	eor	r11, r23
    130c:	80 26       	eor	r8, r16
    130e:	91 26       	eor	r9, r17
    1310:	a2 26       	eor	r10, r18
    1312:	b3 26       	eor	r11, r19
    1314:	c8 0c       	add	r12, r8
    1316:	d9 1c       	adc	r13, r9
    1318:	ea 1c       	adc	r14, r10
    131a:	fb 1c       	adc	r15, r11
    131c:	46 01       	movw	r8, r12
    131e:	57 01       	movw	r10, r14
    1320:	e7 e1       	ldi	r30, 0x17	; 23
    1322:	88 0c       	add	r8, r8
    1324:	99 1c       	adc	r9, r9
    1326:	aa 1c       	adc	r10, r10
    1328:	bb 1c       	adc	r11, r11
    132a:	ea 95       	dec	r30
    132c:	01 f4       	brne	.+0      	; 0x132e <_Z11md5_processP11md5_state_sPKh+0x132e>
    132e:	f9 e0       	ldi	r31, 0x09	; 9
    1330:	f6 94       	lsr	r15
    1332:	e7 94       	ror	r14
    1334:	d7 94       	ror	r13
    1336:	c7 94       	ror	r12
    1338:	fa 95       	dec	r31
    133a:	01 f4       	brne	.+0      	; 0x133c <_Z11md5_processP11md5_state_sPKh+0x133c>
    133c:	c8 28       	or	r12, r8
    133e:	d9 28       	or	r13, r9
    1340:	ea 28       	or	r14, r10
    1342:	fb 28       	or	r15, r11
    1344:	c0 0e       	add	r12, r16
    1346:	d1 1e       	adc	r13, r17
    1348:	e2 1e       	adc	r14, r18
    134a:	f3 1e       	adc	r15, r19
    134c:	89 88       	ldd	r8, Y+17	; 0x11
    134e:	9a 88       	ldd	r9, Y+18	; 0x12
    1350:	ab 88       	ldd	r10, Y+19	; 0x13
    1352:	bc 88       	ldd	r11, Y+20	; 0x14
    1354:	fc eb       	ldi	r31, 0xBC	; 188
    1356:	8f 1a       	sub	r8, r31
    1358:	f5 e1       	ldi	r31, 0x15	; 21
    135a:	9f 0a       	sbc	r9, r31
    135c:	f1 e4       	ldi	r31, 0x41	; 65
    135e:	af 0a       	sbc	r10, r31
    1360:	fb e5       	ldi	r31, 0x5B	; 91
    1362:	bf 0a       	sbc	r11, r31
    1364:	84 0e       	add	r8, r20
    1366:	95 1e       	adc	r9, r21
    1368:	a6 1e       	adc	r10, r22
    136a:	b7 1e       	adc	r11, r23
    136c:	b9 01       	movw	r22, r18
    136e:	a8 01       	movw	r20, r16
    1370:	48 27       	eor	r20, r24
    1372:	59 27       	eor	r21, r25
    1374:	6a 27       	eor	r22, r26
    1376:	7b 27       	eor	r23, r27
    1378:	4c 25       	eor	r20, r12
    137a:	5d 25       	eor	r21, r13
    137c:	6e 25       	eor	r22, r14
    137e:	7f 25       	eor	r23, r15
    1380:	84 0e       	add	r8, r20
    1382:	95 1e       	adc	r9, r21
    1384:	a6 1e       	adc	r10, r22
    1386:	b7 1e       	adc	r11, r23
    1388:	b5 01       	movw	r22, r10
    138a:	a4 01       	movw	r20, r8
    138c:	e4 e0       	ldi	r30, 0x04	; 4
    138e:	44 0f       	add	r20, r20
    1390:	55 1f       	adc	r21, r21
    1392:	66 1f       	adc	r22, r22
    1394:	77 1f       	adc	r23, r23
    1396:	ea 95       	dec	r30
    1398:	01 f4       	brne	.+0      	; 0x139a <_Z11md5_processP11md5_state_sPKh+0x139a>
    139a:	fc e1       	ldi	r31, 0x1C	; 28
    139c:	b6 94       	lsr	r11
    139e:	a7 94       	ror	r10
    13a0:	97 94       	ror	r9
    13a2:	87 94       	ror	r8
    13a4:	fa 95       	dec	r31
    13a6:	01 f4       	brne	.+0      	; 0x13a8 <_Z11md5_processP11md5_state_sPKh+0x13a8>
    13a8:	84 2a       	or	r8, r20
    13aa:	95 2a       	or	r9, r21
    13ac:	a6 2a       	or	r10, r22
    13ae:	b7 2a       	or	r11, r23
    13b0:	8c 0c       	add	r8, r12
    13b2:	9d 1c       	adc	r9, r13
    13b4:	ae 1c       	adc	r10, r14
    13b6:	bf 1c       	adc	r11, r15
    13b8:	4d 8d       	ldd	r20, Y+29	; 0x1d
    13ba:	5e 8d       	ldd	r21, Y+30	; 0x1e
    13bc:	6f 8d       	ldd	r22, Y+31	; 0x1f
    13be:	78 a1       	ldd	r23, Y+32	; 0x20
    13c0:	47 55       	subi	r20, 0x57	; 87
    13c2:	50 43       	sbci	r21, 0x30	; 48
    13c4:	61 42       	sbci	r22, 0x21	; 33
    13c6:	74 4b       	sbci	r23, 0xB4	; 180
    13c8:	48 0f       	add	r20, r24
    13ca:	59 1f       	adc	r21, r25
    13cc:	6a 1f       	adc	r22, r26
    13ce:	7b 1f       	adc	r23, r27
    13d0:	d7 01       	movw	r26, r14
    13d2:	c6 01       	movw	r24, r12
    13d4:	80 27       	eor	r24, r16
    13d6:	91 27       	eor	r25, r17
    13d8:	a2 27       	eor	r26, r18
    13da:	b3 27       	eor	r27, r19
    13dc:	88 25       	eor	r24, r8
    13de:	99 25       	eor	r25, r9
    13e0:	aa 25       	eor	r26, r10
    13e2:	bb 25       	eor	r27, r11
    13e4:	48 0f       	add	r20, r24
    13e6:	59 1f       	adc	r21, r25
    13e8:	6a 1f       	adc	r22, r26
    13ea:	7b 1f       	adc	r23, r27
    13ec:	db 01       	movw	r26, r22
    13ee:	ca 01       	movw	r24, r20
    13f0:	eb e0       	ldi	r30, 0x0B	; 11
    13f2:	88 0f       	add	r24, r24
    13f4:	99 1f       	adc	r25, r25
    13f6:	aa 1f       	adc	r26, r26
    13f8:	bb 1f       	adc	r27, r27
    13fa:	ea 95       	dec	r30
    13fc:	01 f4       	brne	.+0      	; 0x13fe <_Z11md5_processP11md5_state_sPKh+0x13fe>
    13fe:	f5 e1       	ldi	r31, 0x15	; 21
    1400:	76 95       	lsr	r23
    1402:	67 95       	ror	r22
    1404:	57 95       	ror	r21
    1406:	47 95       	ror	r20
    1408:	fa 95       	dec	r31
    140a:	01 f4       	brne	.+0      	; 0x140c <_Z11md5_processP11md5_state_sPKh+0x140c>
    140c:	48 2b       	or	r20, r24
    140e:	59 2b       	or	r21, r25
    1410:	6a 2b       	or	r22, r26
    1412:	7b 2b       	or	r23, r27
    1414:	48 0d       	add	r20, r8
    1416:	59 1d       	adc	r21, r9
    1418:	6a 1d       	adc	r22, r10
    141a:	7b 1d       	adc	r23, r11
    141c:	89 a5       	ldd	r24, Y+41	; 0x29
    141e:	9a a5       	ldd	r25, Y+42	; 0x2a
    1420:	ab a5       	ldd	r26, Y+43	; 0x2b
    1422:	bc a5       	ldd	r27, Y+44	; 0x2c
    1424:	80 5a       	subi	r24, 0xA0	; 160
    1426:	94 4b       	sbci	r25, 0xB4	; 180
    1428:	a4 44       	sbci	r26, 0x44	; 68
    142a:	b9 40       	sbci	r27, 0x09	; 9
    142c:	80 0f       	add	r24, r16
    142e:	91 1f       	adc	r25, r17
    1430:	a2 1f       	adc	r26, r18
    1432:	b3 1f       	adc	r27, r19
    1434:	95 01       	movw	r18, r10
    1436:	84 01       	movw	r16, r8
    1438:	0c 25       	eor	r16, r12
    143a:	1d 25       	eor	r17, r13
    143c:	2e 25       	eor	r18, r14
    143e:	3f 25       	eor	r19, r15
    1440:	04 27       	eor	r16, r20
    1442:	15 27       	eor	r17, r21
    1444:	26 27       	eor	r18, r22
    1446:	37 27       	eor	r19, r23
    1448:	80 0f       	add	r24, r16
    144a:	91 1f       	adc	r25, r17
    144c:	a2 1f       	adc	r26, r18
    144e:	b3 1f       	adc	r27, r19
    1450:	2c 01       	movw	r4, r24
    1452:	cd 01       	movw	r24, r26
    1454:	d2 01       	movw	r26, r4
    1456:	84 0f       	add	r24, r20
    1458:	95 1f       	adc	r25, r21
    145a:	a6 1f       	adc	r26, r22
    145c:	b7 1f       	adc	r27, r23
    145e:	0d a9       	ldd	r16, Y+53	; 0x35
    1460:	1e a9       	ldd	r17, Y+54	; 0x36
    1462:	2f a9       	ldd	r18, Y+55	; 0x37
    1464:	38 ad       	ldd	r19, Y+56	; 0x38
    1466:	00 59       	subi	r16, 0x90	; 144
    1468:	13 44       	sbci	r17, 0x43	; 67
    146a:	20 44       	sbci	r18, 0x40	; 64
    146c:	31 44       	sbci	r19, 0x41	; 65
    146e:	0c 0d       	add	r16, r12
    1470:	1d 1d       	adc	r17, r13
    1472:	2e 1d       	adc	r18, r14
    1474:	3f 1d       	adc	r19, r15
    1476:	6a 01       	movw	r12, r20
    1478:	7b 01       	movw	r14, r22
    147a:	c8 24       	eor	r12, r8
    147c:	d9 24       	eor	r13, r9
    147e:	ea 24       	eor	r14, r10
    1480:	fb 24       	eor	r15, r11
    1482:	c8 26       	eor	r12, r24
    1484:	d9 26       	eor	r13, r25
    1486:	ea 26       	eor	r14, r26
    1488:	fb 26       	eor	r15, r27
    148a:	0c 0d       	add	r16, r12
    148c:	1d 1d       	adc	r17, r13
    148e:	2e 1d       	adc	r18, r14
    1490:	3f 1d       	adc	r19, r15
    1492:	68 01       	movw	r12, r16
    1494:	79 01       	movw	r14, r18
    1496:	e7 e1       	ldi	r30, 0x17	; 23
    1498:	cc 0c       	add	r12, r12
    149a:	dd 1c       	adc	r13, r13
    149c:	ee 1c       	adc	r14, r14
    149e:	ff 1c       	adc	r15, r15
    14a0:	ea 95       	dec	r30
    14a2:	01 f4       	brne	.+0      	; 0x14a4 <_Z11md5_processP11md5_state_sPKh+0x14a4>
    14a4:	f9 e0       	ldi	r31, 0x09	; 9
    14a6:	36 95       	lsr	r19
    14a8:	27 95       	ror	r18
    14aa:	17 95       	ror	r17
    14ac:	07 95       	ror	r16
    14ae:	fa 95       	dec	r31
    14b0:	01 f4       	brne	.+0      	; 0x14b2 <_Z11md5_processP11md5_state_sPKh+0x14b2>
    14b2:	0c 29       	or	r16, r12
    14b4:	1d 29       	or	r17, r13
    14b6:	2e 29       	or	r18, r14
    14b8:	3f 29       	or	r19, r15
    14ba:	08 0f       	add	r16, r24
    14bc:	19 1f       	adc	r17, r25
    14be:	2a 1f       	adc	r18, r26
    14c0:	3b 1f       	adc	r19, r27
    14c2:	25 96       	adiw	r28, 0x05	; 5
    14c4:	cc ac       	ldd	r12, Y+60	; 0x3c
    14c6:	dd ac       	ldd	r13, Y+61	; 0x3d
    14c8:	ee ac       	ldd	r14, Y+62	; 0x3e
    14ca:	ff ac       	ldd	r15, Y+63	; 0x3f
    14cc:	25 97       	sbiw	r28, 0x05	; 5
    14ce:	ea e3       	ldi	r30, 0x3A	; 58
    14d0:	ce 1a       	sub	r12, r30
    14d2:	e1 e8       	ldi	r30, 0x81	; 129
    14d4:	de 0a       	sbc	r13, r30
    14d6:	e4 e6       	ldi	r30, 0x64	; 100
    14d8:	ee 0a       	sbc	r14, r30
    14da:	e7 ed       	ldi	r30, 0xD7	; 215
    14dc:	fe 0a       	sbc	r15, r30
    14de:	c8 0c       	add	r12, r8
    14e0:	d9 1c       	adc	r13, r9
    14e2:	ea 1c       	adc	r14, r10
    14e4:	fb 1c       	adc	r15, r11
    14e6:	4c 01       	movw	r8, r24
    14e8:	5d 01       	movw	r10, r26
    14ea:	84 26       	eor	r8, r20
    14ec:	95 26       	eor	r9, r21
    14ee:	a6 26       	eor	r10, r22
    14f0:	b7 26       	eor	r11, r23
    14f2:	80 26       	eor	r8, r16
    14f4:	91 26       	eor	r9, r17
    14f6:	a2 26       	eor	r10, r18
    14f8:	b3 26       	eor	r11, r19
    14fa:	c8 0c       	add	r12, r8
    14fc:	d9 1c       	adc	r13, r9
    14fe:	ea 1c       	adc	r14, r10
    1500:	fb 1c       	adc	r15, r11
    1502:	46 01       	movw	r8, r12
    1504:	57 01       	movw	r10, r14
    1506:	e4 e0       	ldi	r30, 0x04	; 4
    1508:	88 0c       	add	r8, r8
    150a:	99 1c       	adc	r9, r9
    150c:	aa 1c       	adc	r10, r10
    150e:	bb 1c       	adc	r11, r11
    1510:	ea 95       	dec	r30
    1512:	01 f4       	brne	.+0      	; 0x1514 <_Z11md5_processP11md5_state_sPKh+0x1514>
    1514:	fc e1       	ldi	r31, 0x1C	; 28
    1516:	f6 94       	lsr	r15
    1518:	e7 94       	ror	r14
    151a:	d7 94       	ror	r13
    151c:	c7 94       	ror	r12
    151e:	fa 95       	dec	r31
    1520:	01 f4       	brne	.+0      	; 0x1522 <_Z11md5_processP11md5_state_sPKh+0x1522>
    1522:	c8 28       	or	r12, r8
    1524:	d9 28       	or	r13, r9
    1526:	ea 28       	or	r14, r10
    1528:	fb 28       	or	r15, r11
    152a:	c0 0e       	add	r12, r16
    152c:	d1 1e       	adc	r13, r17
    152e:	e2 1e       	adc	r14, r18
    1530:	f3 1e       	adc	r15, r19
    1532:	8d 84       	ldd	r8, Y+13	; 0x0d
    1534:	9e 84       	ldd	r9, Y+14	; 0x0e
    1536:	af 84       	ldd	r10, Y+15	; 0x0f
    1538:	b8 88       	ldd	r11, Y+16	; 0x10
    153a:	f6 e0       	ldi	r31, 0x06	; 6
    153c:	8f 1a       	sub	r8, r31
    153e:	f8 ed       	ldi	r31, 0xD8	; 216
    1540:	9f 0a       	sbc	r9, r31
    1542:	fe e5       	ldi	r31, 0x5E	; 94
    1544:	af 0a       	sbc	r10, r31
    1546:	f5 e1       	ldi	r31, 0x15	; 21
    1548:	bf 0a       	sbc	r11, r31
    154a:	84 0e       	add	r8, r20
    154c:	95 1e       	adc	r9, r21
    154e:	a6 1e       	adc	r10, r22
    1550:	b7 1e       	adc	r11, r23
    1552:	b9 01       	movw	r22, r18
    1554:	a8 01       	movw	r20, r16
    1556:	48 27       	eor	r20, r24
    1558:	59 27       	eor	r21, r25
    155a:	6a 27       	eor	r22, r26
    155c:	7b 27       	eor	r23, r27
    155e:	4c 25       	eor	r20, r12
    1560:	5d 25       	eor	r21, r13
    1562:	6e 25       	eor	r22, r14
    1564:	7f 25       	eor	r23, r15
    1566:	84 0e       	add	r8, r20
    1568:	95 1e       	adc	r9, r21
    156a:	a6 1e       	adc	r10, r22
    156c:	b7 1e       	adc	r11, r23
    156e:	b5 01       	movw	r22, r10
    1570:	a4 01       	movw	r20, r8
    1572:	eb e0       	ldi	r30, 0x0B	; 11
    1574:	44 0f       	add	r20, r20
    1576:	55 1f       	adc	r21, r21
    1578:	66 1f       	adc	r22, r22
    157a:	77 1f       	adc	r23, r23
    157c:	ea 95       	dec	r30
    157e:	01 f4       	brne	.+0      	; 0x1580 <_Z11md5_processP11md5_state_sPKh+0x1580>
    1580:	f5 e1       	ldi	r31, 0x15	; 21
    1582:	b6 94       	lsr	r11
    1584:	a7 94       	ror	r10
    1586:	97 94       	ror	r9
    1588:	87 94       	ror	r8
    158a:	fa 95       	dec	r31
    158c:	01 f4       	brne	.+0      	; 0x158e <_Z11md5_processP11md5_state_sPKh+0x158e>
    158e:	84 2a       	or	r8, r20
    1590:	95 2a       	or	r9, r21
    1592:	a6 2a       	or	r10, r22
    1594:	b7 2a       	or	r11, r23
    1596:	8c 0c       	add	r8, r12
    1598:	9d 1c       	adc	r9, r13
    159a:	ae 1c       	adc	r10, r14
    159c:	bf 1c       	adc	r11, r15
    159e:	49 8d       	ldd	r20, Y+25	; 0x19
    15a0:	5a 8d       	ldd	r21, Y+26	; 0x1a
    15a2:	6b 8d       	ldd	r22, Y+27	; 0x1b
    15a4:	7c 8d       	ldd	r23, Y+28	; 0x1c
    15a6:	4b 57       	subi	r20, 0x7B	; 123
    15a8:	5f 4c       	sbci	r21, 0xCF	; 207
    15aa:	60 41       	sbci	r22, 0x10	; 16
    15ac:	7b 42       	sbci	r23, 0x2B	; 43
    15ae:	48 0f       	add	r20, r24
    15b0:	59 1f       	adc	r21, r25
    15b2:	6a 1f       	adc	r22, r26
    15b4:	7b 1f       	adc	r23, r27
    15b6:	d7 01       	movw	r26, r14
    15b8:	c6 01       	movw	r24, r12
    15ba:	80 27       	eor	r24, r16
    15bc:	91 27       	eor	r25, r17
    15be:	a2 27       	eor	r26, r18
    15c0:	b3 27       	eor	r27, r19
    15c2:	88 25       	eor	r24, r8
    15c4:	99 25       	eor	r25, r9
    15c6:	aa 25       	eor	r26, r10
    15c8:	bb 25       	eor	r27, r11
    15ca:	48 0f       	add	r20, r24
    15cc:	59 1f       	adc	r21, r25
    15ce:	6a 1f       	adc	r22, r26
    15d0:	7b 1f       	adc	r23, r27
    15d2:	da 01       	movw	r26, r20
    15d4:	cb 01       	movw	r24, r22
    15d6:	88 0d       	add	r24, r8
    15d8:	99 1d       	adc	r25, r9
    15da:	aa 1d       	adc	r26, r10
    15dc:	bb 1d       	adc	r27, r11
    15de:	4d a1       	ldd	r20, Y+37	; 0x25
    15e0:	5e a1       	ldd	r21, Y+38	; 0x26
    15e2:	6f a1       	ldd	r22, Y+39	; 0x27
    15e4:	78 a5       	ldd	r23, Y+40	; 0x28
    15e6:	4b 5f       	subi	r20, 0xFB	; 251
    15e8:	52 4e       	sbci	r21, 0xE2	; 226
    15ea:	67 47       	sbci	r22, 0x77	; 119
    15ec:	7b 4f       	sbci	r23, 0xFB	; 251
    15ee:	40 0f       	add	r20, r16
    15f0:	51 1f       	adc	r21, r17
    15f2:	62 1f       	adc	r22, r18
    15f4:	73 1f       	adc	r23, r19
    15f6:	95 01       	movw	r18, r10
    15f8:	84 01       	movw	r16, r8
    15fa:	0c 25       	eor	r16, r12
    15fc:	1d 25       	eor	r17, r13
    15fe:	2e 25       	eor	r18, r14
    1600:	3f 25       	eor	r19, r15
    1602:	08 27       	eor	r16, r24
    1604:	19 27       	eor	r17, r25
    1606:	2a 27       	eor	r18, r26
    1608:	3b 27       	eor	r19, r27
    160a:	40 0f       	add	r20, r16
    160c:	51 1f       	adc	r21, r17
    160e:	62 1f       	adc	r22, r18
    1610:	73 1f       	adc	r23, r19
    1612:	8a 01       	movw	r16, r20
    1614:	9b 01       	movw	r18, r22
    1616:	e7 e1       	ldi	r30, 0x17	; 23
    1618:	00 0f       	add	r16, r16
    161a:	11 1f       	adc	r17, r17
    161c:	22 1f       	adc	r18, r18
    161e:	33 1f       	adc	r19, r19
    1620:	ea 95       	dec	r30
    1622:	01 f4       	brne	.+0      	; 0x1624 <_Z11md5_processP11md5_state_sPKh+0x1624>
    1624:	f9 e0       	ldi	r31, 0x09	; 9
    1626:	76 95       	lsr	r23
    1628:	67 95       	ror	r22
    162a:	57 95       	ror	r21
    162c:	47 95       	ror	r20
    162e:	fa 95       	dec	r31
    1630:	01 f4       	brne	.+0      	; 0x1632 <_Z11md5_processP11md5_state_sPKh+0x1632>
    1632:	40 2b       	or	r20, r16
    1634:	51 2b       	or	r21, r17
    1636:	62 2b       	or	r22, r18
    1638:	73 2b       	or	r23, r19
    163a:	48 0f       	add	r20, r24
    163c:	59 1f       	adc	r21, r25
    163e:	6a 1f       	adc	r22, r26
    1640:	7b 1f       	adc	r23, r27
    1642:	09 a9       	ldd	r16, Y+49	; 0x31
    1644:	1a a9       	ldd	r17, Y+50	; 0x32
    1646:	2b a9       	ldd	r18, Y+51	; 0x33
    1648:	3c a9       	ldd	r19, Y+52	; 0x34
    164a:	07 5c       	subi	r16, 0xC7	; 199
    164c:	1f 42       	sbci	r17, 0x2F	; 47
    164e:	2b 42       	sbci	r18, 0x2B	; 43
    1650:	36 42       	sbci	r19, 0x26	; 38
    1652:	0c 0d       	add	r16, r12
    1654:	1d 1d       	adc	r17, r13
    1656:	2e 1d       	adc	r18, r14
    1658:	3f 1d       	adc	r19, r15
    165a:	6c 01       	movw	r12, r24
    165c:	7d 01       	movw	r14, r26
    165e:	c8 24       	eor	r12, r8
    1660:	d9 24       	eor	r13, r9
    1662:	ea 24       	eor	r14, r10
    1664:	fb 24       	eor	r15, r11
    1666:	c4 26       	eor	r12, r20
    1668:	d5 26       	eor	r13, r21
    166a:	e6 26       	eor	r14, r22
    166c:	f7 26       	eor	r15, r23
    166e:	0c 0d       	add	r16, r12
    1670:	1d 1d       	adc	r17, r13
    1672:	2e 1d       	adc	r18, r14
    1674:	3f 1d       	adc	r19, r15
    1676:	68 01       	movw	r12, r16
    1678:	79 01       	movw	r14, r18
    167a:	e4 e0       	ldi	r30, 0x04	; 4
    167c:	cc 0c       	add	r12, r12
    167e:	dd 1c       	adc	r13, r13
    1680:	ee 1c       	adc	r14, r14
    1682:	ff 1c       	adc	r15, r15
    1684:	ea 95       	dec	r30
    1686:	01 f4       	brne	.+0      	; 0x1688 <_Z11md5_processP11md5_state_sPKh+0x1688>
    1688:	fc e1       	ldi	r31, 0x1C	; 28
    168a:	36 95       	lsr	r19
    168c:	27 95       	ror	r18
    168e:	17 95       	ror	r17
    1690:	07 95       	ror	r16
    1692:	fa 95       	dec	r31
    1694:	01 f4       	brne	.+0      	; 0x1696 <_Z11md5_processP11md5_state_sPKh+0x1696>
    1696:	0c 29       	or	r16, r12
    1698:	1d 29       	or	r17, r13
    169a:	2e 29       	or	r18, r14
    169c:	3f 29       	or	r19, r15
    169e:	04 0f       	add	r16, r20
    16a0:	15 1f       	adc	r17, r21
    16a2:	26 1f       	adc	r18, r22
    16a4:	37 1f       	adc	r19, r23
    16a6:	21 96       	adiw	r28, 0x01	; 1
    16a8:	cc ac       	ldd	r12, Y+60	; 0x3c
    16aa:	dd ac       	ldd	r13, Y+61	; 0x3d
    16ac:	ee ac       	ldd	r14, Y+62	; 0x3e
    16ae:	ff ac       	ldd	r15, Y+63	; 0x3f
    16b0:	21 97       	sbiw	r28, 0x01	; 1
    16b2:	eb e1       	ldi	r30, 0x1B	; 27
    16b4:	ce 1a       	sub	r12, r30
    16b6:	e6 e6       	ldi	r30, 0x66	; 102
    16b8:	de 0a       	sbc	r13, r30
    16ba:	e4 e2       	ldi	r30, 0x24	; 36
    16bc:	ee 0a       	sbc	r14, r30
    16be:	e9 e1       	ldi	r30, 0x19	; 25
    16c0:	fe 0a       	sbc	r15, r30
    16c2:	c8 0c       	add	r12, r8
    16c4:	d9 1c       	adc	r13, r9
    16c6:	ea 1c       	adc	r14, r10
    16c8:	fb 1c       	adc	r15, r11
    16ca:	4a 01       	movw	r8, r20
    16cc:	5b 01       	movw	r10, r22
    16ce:	88 26       	eor	r8, r24
    16d0:	99 26       	eor	r9, r25
    16d2:	aa 26       	eor	r10, r26
    16d4:	bb 26       	eor	r11, r27
    16d6:	80 26       	eor	r8, r16
    16d8:	91 26       	eor	r9, r17
    16da:	a2 26       	eor	r10, r18
    16dc:	b3 26       	eor	r11, r19
    16de:	c8 0c       	add	r12, r8
    16e0:	d9 1c       	adc	r13, r9
    16e2:	ea 1c       	adc	r14, r10
    16e4:	fb 1c       	adc	r15, r11
    16e6:	46 01       	movw	r8, r12
    16e8:	57 01       	movw	r10, r14
    16ea:	eb e0       	ldi	r30, 0x0B	; 11
    16ec:	88 0c       	add	r8, r8
    16ee:	99 1c       	adc	r9, r9
    16f0:	aa 1c       	adc	r10, r10
    16f2:	bb 1c       	adc	r11, r11
    16f4:	ea 95       	dec	r30
    16f6:	01 f4       	brne	.+0      	; 0x16f8 <_Z11md5_processP11md5_state_sPKh+0x16f8>
    16f8:	f5 e1       	ldi	r31, 0x15	; 21
    16fa:	f6 94       	lsr	r15
    16fc:	e7 94       	ror	r14
    16fe:	d7 94       	ror	r13
    1700:	c7 94       	ror	r12
    1702:	fa 95       	dec	r31
    1704:	01 f4       	brne	.+0      	; 0x1706 <_Z11md5_processP11md5_state_sPKh+0x1706>
    1706:	c8 28       	or	r12, r8
    1708:	d9 28       	or	r13, r9
    170a:	ea 28       	or	r14, r10
    170c:	fb 28       	or	r15, r11
    170e:	c0 0e       	add	r12, r16
    1710:	d1 1e       	adc	r13, r17
    1712:	e2 1e       	adc	r14, r18
    1714:	f3 1e       	adc	r15, r19
    1716:	2d 96       	adiw	r28, 0x0d	; 13
    1718:	8c ac       	ldd	r8, Y+60	; 0x3c
    171a:	9d ac       	ldd	r9, Y+61	; 0x3d
    171c:	ae ac       	ldd	r10, Y+62	; 0x3e
    171e:	bf ac       	ldd	r11, Y+63	; 0x3f
    1720:	2d 97       	sbiw	r28, 0x0d	; 13
    1722:	f8 e0       	ldi	r31, 0x08	; 8
    1724:	8f 1a       	sub	r8, r31
    1726:	f3 e8       	ldi	r31, 0x83	; 131
    1728:	9f 0a       	sbc	r9, r31
    172a:	fd e5       	ldi	r31, 0x5D	; 93
    172c:	af 0a       	sbc	r10, r31
    172e:	f0 ee       	ldi	r31, 0xE0	; 224
    1730:	bf 0a       	sbc	r11, r31
    1732:	88 0e       	add	r8, r24
    1734:	99 1e       	adc	r9, r25
    1736:	aa 1e       	adc	r10, r26
    1738:	bb 1e       	adc	r11, r27
    173a:	d9 01       	movw	r26, r18
    173c:	c8 01       	movw	r24, r16
    173e:	84 27       	eor	r24, r20
    1740:	95 27       	eor	r25, r21
    1742:	a6 27       	eor	r26, r22
    1744:	b7 27       	eor	r27, r23
    1746:	8c 25       	eor	r24, r12
    1748:	9d 25       	eor	r25, r13
    174a:	ae 25       	eor	r26, r14
    174c:	bf 25       	eor	r27, r15
    174e:	88 0e       	add	r8, r24
    1750:	99 1e       	adc	r9, r25
    1752:	aa 1e       	adc	r10, r26
    1754:	bb 1e       	adc	r11, r27
    1756:	d4 01       	movw	r26, r8
    1758:	c5 01       	movw	r24, r10
    175a:	8c 0d       	add	r24, r12
    175c:	9d 1d       	adc	r25, r13
    175e:	ae 1d       	adc	r26, r14
    1760:	bf 1d       	adc	r27, r15
    1762:	8d 88       	ldd	r8, Y+21	; 0x15
    1764:	9e 88       	ldd	r9, Y+22	; 0x16
    1766:	af 88       	ldd	r10, Y+23	; 0x17
    1768:	b8 8c       	ldd	r11, Y+24	; 0x18
    176a:	eb e9       	ldi	r30, 0x9B	; 155
    176c:	8e 1a       	sub	r8, r30
    176e:	e9 ea       	ldi	r30, 0xA9	; 169
    1770:	9e 0a       	sbc	r9, r30
    1772:	e3 e5       	ldi	r30, 0x53	; 83
    1774:	ae 0a       	sbc	r10, r30
    1776:	eb e3       	ldi	r30, 0x3B	; 59
    1778:	be 0a       	sbc	r11, r30
    177a:	84 0e       	add	r8, r20
    177c:	95 1e       	adc	r9, r21
    177e:	a6 1e       	adc	r10, r22
    1780:	b7 1e       	adc	r11, r23
    1782:	b7 01       	movw	r22, r14
    1784:	a6 01       	movw	r20, r12
    1786:	40 27       	eor	r20, r16
    1788:	51 27       	eor	r21, r17
    178a:	62 27       	eor	r22, r18
    178c:	73 27       	eor	r23, r19
    178e:	48 27       	eor	r20, r24
    1790:	59 27       	eor	r21, r25
    1792:	6a 27       	eor	r22, r26
    1794:	7b 27       	eor	r23, r27
    1796:	84 0e       	add	r8, r20
    1798:	95 1e       	adc	r9, r21
    179a:	a6 1e       	adc	r10, r22
    179c:	b7 1e       	adc	r11, r23
    179e:	b5 01       	movw	r22, r10
    17a0:	a4 01       	movw	r20, r8
    17a2:	e7 e1       	ldi	r30, 0x17	; 23
    17a4:	44 0f       	add	r20, r20
    17a6:	55 1f       	adc	r21, r21
    17a8:	66 1f       	adc	r22, r22
    17aa:	77 1f       	adc	r23, r23
    17ac:	ea 95       	dec	r30
    17ae:	01 f4       	brne	.+0      	; 0x17b0 <_Z11md5_processP11md5_state_sPKh+0x17b0>
    17b0:	f9 e0       	ldi	r31, 0x09	; 9
    17b2:	b6 94       	lsr	r11
    17b4:	a7 94       	ror	r10
    17b6:	97 94       	ror	r9
    17b8:	87 94       	ror	r8
    17ba:	fa 95       	dec	r31
    17bc:	01 f4       	brne	.+0      	; 0x17be <_Z11md5_processP11md5_state_sPKh+0x17be>
    17be:	84 2a       	or	r8, r20
    17c0:	95 2a       	or	r9, r21
    17c2:	a6 2a       	or	r10, r22
    17c4:	b7 2a       	or	r11, r23
    17c6:	88 0e       	add	r8, r24
    17c8:	99 1e       	adc	r9, r25
    17ca:	aa 1e       	adc	r10, r26
    17cc:	bb 1e       	adc	r11, r27
    17ce:	4d 85       	ldd	r20, Y+13	; 0x0d
    17d0:	5e 85       	ldd	r21, Y+14	; 0x0e
    17d2:	6f 85       	ldd	r22, Y+15	; 0x0f
    17d4:	78 89       	ldd	r23, Y+16	; 0x10
    17d6:	4c 5b       	subi	r20, 0xBC	; 188
    17d8:	5d 4d       	sbci	r21, 0xDD	; 221
    17da:	66 4d       	sbci	r22, 0xD6	; 214
    17dc:	7b 40       	sbci	r23, 0x0B	; 11
    17de:	40 0f       	add	r20, r16
    17e0:	51 1f       	adc	r21, r17
    17e2:	62 1f       	adc	r22, r18
    17e4:	73 1f       	adc	r23, r19
    17e6:	97 01       	movw	r18, r14
    17e8:	86 01       	movw	r16, r12
    17ea:	00 95       	com	r16
    17ec:	10 95       	com	r17
    17ee:	20 95       	com	r18
    17f0:	30 95       	com	r19
    17f2:	08 29       	or	r16, r8
    17f4:	19 29       	or	r17, r9
    17f6:	2a 29       	or	r18, r10
    17f8:	3b 29       	or	r19, r11
    17fa:	08 27       	eor	r16, r24
    17fc:	19 27       	eor	r17, r25
    17fe:	2a 27       	eor	r18, r26
    1800:	3b 27       	eor	r19, r27
    1802:	40 0f       	add	r20, r16
    1804:	51 1f       	adc	r21, r17
    1806:	62 1f       	adc	r22, r18
    1808:	73 1f       	adc	r23, r19
    180a:	8a 01       	movw	r16, r20
    180c:	9b 01       	movw	r18, r22
    180e:	e6 e0       	ldi	r30, 0x06	; 6
    1810:	00 0f       	add	r16, r16
    1812:	11 1f       	adc	r17, r17
    1814:	22 1f       	adc	r18, r18
    1816:	33 1f       	adc	r19, r19
    1818:	ea 95       	dec	r30
    181a:	01 f4       	brne	.+0      	; 0x181c <_Z11md5_processP11md5_state_sPKh+0x181c>
    181c:	fa e1       	ldi	r31, 0x1A	; 26
    181e:	76 95       	lsr	r23
    1820:	67 95       	ror	r22
    1822:	57 95       	ror	r21
    1824:	47 95       	ror	r20
    1826:	fa 95       	dec	r31
    1828:	01 f4       	brne	.+0      	; 0x182a <_Z11md5_processP11md5_state_sPKh+0x182a>
    182a:	40 2b       	or	r20, r16
    182c:	51 2b       	or	r21, r17
    182e:	62 2b       	or	r22, r18
    1830:	73 2b       	or	r23, r19
    1832:	48 0d       	add	r20, r8
    1834:	59 1d       	adc	r21, r9
    1836:	6a 1d       	adc	r22, r10
    1838:	7b 1d       	adc	r23, r11
    183a:	09 a5       	ldd	r16, Y+41	; 0x29
    183c:	1a a5       	ldd	r17, Y+42	; 0x2a
    183e:	2b a5       	ldd	r18, Y+43	; 0x2b
    1840:	3c a5       	ldd	r19, Y+44	; 0x2c
    1842:	09 56       	subi	r16, 0x69	; 105
    1844:	11 09       	sbc	r17, r1
    1846:	25 4d       	sbci	r18, 0xD5	; 213
    1848:	3c 4b       	sbci	r19, 0xBC	; 188
    184a:	0c 0d       	add	r16, r12
    184c:	1d 1d       	adc	r17, r13
    184e:	2e 1d       	adc	r18, r14
    1850:	3f 1d       	adc	r19, r15
    1852:	6c 01       	movw	r12, r24
    1854:	7d 01       	movw	r14, r26
    1856:	c0 94       	com	r12
    1858:	d0 94       	com	r13
    185a:	e0 94       	com	r14
    185c:	f0 94       	com	r15
    185e:	c4 2a       	or	r12, r20
    1860:	d5 2a       	or	r13, r21
    1862:	e6 2a       	or	r14, r22
    1864:	f7 2a       	or	r15, r23
    1866:	c8 24       	eor	r12, r8
    1868:	d9 24       	eor	r13, r9
    186a:	ea 24       	eor	r14, r10
    186c:	fb 24       	eor	r15, r11
    186e:	0c 0d       	add	r16, r12
    1870:	1d 1d       	adc	r17, r13
    1872:	2e 1d       	adc	r18, r14
    1874:	3f 1d       	adc	r19, r15
    1876:	68 01       	movw	r12, r16
    1878:	79 01       	movw	r14, r18
    187a:	ea e0       	ldi	r30, 0x0A	; 10
    187c:	cc 0c       	add	r12, r12
    187e:	dd 1c       	adc	r13, r13
    1880:	ee 1c       	adc	r14, r14
    1882:	ff 1c       	adc	r15, r15
    1884:	ea 95       	dec	r30
    1886:	01 f4       	brne	.+0      	; 0x1888 <_Z11md5_processP11md5_state_sPKh+0x1888>
    1888:	f6 e1       	ldi	r31, 0x16	; 22
    188a:	36 95       	lsr	r19
    188c:	27 95       	ror	r18
    188e:	17 95       	ror	r17
    1890:	07 95       	ror	r16
    1892:	fa 95       	dec	r31
    1894:	01 f4       	brne	.+0      	; 0x1896 <_Z11md5_processP11md5_state_sPKh+0x1896>
    1896:	0c 29       	or	r16, r12
    1898:	1d 29       	or	r17, r13
    189a:	2e 29       	or	r18, r14
    189c:	3f 29       	or	r19, r15
    189e:	04 0f       	add	r16, r20
    18a0:	15 1f       	adc	r17, r21
    18a2:	26 1f       	adc	r18, r22
    18a4:	37 1f       	adc	r19, r23
    18a6:	29 96       	adiw	r28, 0x09	; 9
    18a8:	cc ac       	ldd	r12, Y+60	; 0x3c
    18aa:	dd ac       	ldd	r13, Y+61	; 0x3d
    18ac:	ee ac       	ldd	r14, Y+62	; 0x3e
    18ae:	ff ac       	ldd	r15, Y+63	; 0x3f
    18b0:	29 97       	sbiw	r28, 0x09	; 9
    18b2:	f9 e5       	ldi	r31, 0x59	; 89
    18b4:	cf 1a       	sub	r12, r31
    18b6:	fc ed       	ldi	r31, 0xDC	; 220
    18b8:	df 0a       	sbc	r13, r31
    18ba:	fb e6       	ldi	r31, 0x6B	; 107
    18bc:	ef 0a       	sbc	r14, r31
    18be:	f4 e5       	ldi	r31, 0x54	; 84
    18c0:	ff 0a       	sbc	r15, r31
    18c2:	c8 0e       	add	r12, r24
    18c4:	d9 1e       	adc	r13, r25
    18c6:	ea 1e       	adc	r14, r26
    18c8:	fb 1e       	adc	r15, r27
    18ca:	d5 01       	movw	r26, r10
    18cc:	c4 01       	movw	r24, r8
    18ce:	80 95       	com	r24
    18d0:	90 95       	com	r25
    18d2:	a0 95       	com	r26
    18d4:	b0 95       	com	r27
    18d6:	80 2b       	or	r24, r16
    18d8:	91 2b       	or	r25, r17
    18da:	a2 2b       	or	r26, r18
    18dc:	b3 2b       	or	r27, r19
    18de:	84 27       	eor	r24, r20
    18e0:	95 27       	eor	r25, r21
    18e2:	a6 27       	eor	r26, r22
    18e4:	b7 27       	eor	r27, r23
    18e6:	c8 0e       	add	r12, r24
    18e8:	d9 1e       	adc	r13, r25
    18ea:	ea 1e       	adc	r14, r26
    18ec:	fb 1e       	adc	r15, r27
    18ee:	d7 01       	movw	r26, r14
    18f0:	c6 01       	movw	r24, r12
    18f2:	ef e0       	ldi	r30, 0x0F	; 15
    18f4:	88 0f       	add	r24, r24
    18f6:	99 1f       	adc	r25, r25
    18f8:	aa 1f       	adc	r26, r26
    18fa:	bb 1f       	adc	r27, r27
    18fc:	ea 95       	dec	r30
    18fe:	01 f4       	brne	.+0      	; 0x1900 <_Z11md5_processP11md5_state_sPKh+0x1900>
    1900:	f1 e1       	ldi	r31, 0x11	; 17
    1902:	f6 94       	lsr	r15
    1904:	e7 94       	ror	r14
    1906:	d7 94       	ror	r13
    1908:	c7 94       	ror	r12
    190a:	fa 95       	dec	r31
    190c:	01 f4       	brne	.+0      	; 0x190e <_Z11md5_processP11md5_state_sPKh+0x190e>
    190e:	c8 2a       	or	r12, r24
    1910:	d9 2a       	or	r13, r25
    1912:	ea 2a       	or	r14, r26
    1914:	fb 2a       	or	r15, r27
    1916:	c0 0e       	add	r12, r16
    1918:	d1 1e       	adc	r13, r17
    191a:	e2 1e       	adc	r14, r18
    191c:	f3 1e       	adc	r15, r19
    191e:	89 a1       	ldd	r24, Y+33	; 0x21
    1920:	9a a1       	ldd	r25, Y+34	; 0x22
    1922:	ab a1       	ldd	r26, Y+35	; 0x23
    1924:	bc a1       	ldd	r27, Y+36	; 0x24
    1926:	87 5c       	subi	r24, 0xC7	; 199
    1928:	9f 45       	sbci	r25, 0x5F	; 95
    192a:	ac 46       	sbci	r26, 0x6C	; 108
    192c:	b3 40       	sbci	r27, 0x03	; 3
    192e:	88 0d       	add	r24, r8
    1930:	99 1d       	adc	r25, r9
    1932:	aa 1d       	adc	r26, r10
    1934:	bb 1d       	adc	r27, r11
    1936:	4a 01       	movw	r8, r20
    1938:	5b 01       	movw	r10, r22
    193a:	80 94       	com	r8
    193c:	90 94       	com	r9
    193e:	a0 94       	com	r10
    1940:	b0 94       	com	r11
    1942:	8c 28       	or	r8, r12
    1944:	9d 28       	or	r9, r13
    1946:	ae 28       	or	r10, r14
    1948:	bf 28       	or	r11, r15
    194a:	80 26       	eor	r8, r16
    194c:	91 26       	eor	r9, r17
    194e:	a2 26       	eor	r10, r18
    1950:	b3 26       	eor	r11, r19
    1952:	88 0d       	add	r24, r8
    1954:	99 1d       	adc	r25, r9
    1956:	aa 1d       	adc	r26, r10
    1958:	bb 1d       	adc	r27, r11
    195a:	4c 01       	movw	r8, r24
    195c:	5d 01       	movw	r10, r26
    195e:	e5 e1       	ldi	r30, 0x15	; 21
    1960:	88 0c       	add	r8, r8
    1962:	99 1c       	adc	r9, r9
    1964:	aa 1c       	adc	r10, r10
    1966:	bb 1c       	adc	r11, r11
    1968:	ea 95       	dec	r30
    196a:	01 f4       	brne	.+0      	; 0x196c <_Z11md5_processP11md5_state_sPKh+0x196c>
    196c:	fb e0       	ldi	r31, 0x0B	; 11
    196e:	b6 95       	lsr	r27
    1970:	a7 95       	ror	r26
    1972:	97 95       	ror	r25
    1974:	87 95       	ror	r24
    1976:	fa 95       	dec	r31
    1978:	01 f4       	brne	.+0      	; 0x197a <_Z11md5_processP11md5_state_sPKh+0x197a>
    197a:	88 29       	or	r24, r8
    197c:	99 29       	or	r25, r9
    197e:	aa 29       	or	r26, r10
    1980:	bb 29       	or	r27, r11
    1982:	8c 0d       	add	r24, r12
    1984:	9d 1d       	adc	r25, r13
    1986:	ae 1d       	adc	r26, r14
    1988:	bf 1d       	adc	r27, r15
    198a:	21 96       	adiw	r28, 0x01	; 1
    198c:	8c ac       	ldd	r8, Y+60	; 0x3c
    198e:	9d ac       	ldd	r9, Y+61	; 0x3d
    1990:	ae ac       	ldd	r10, Y+62	; 0x3e
    1992:	bf ac       	ldd	r11, Y+63	; 0x3f
    1994:	21 97       	sbiw	r28, 0x01	; 1
    1996:	ed e3       	ldi	r30, 0x3D	; 61
    1998:	8e 1a       	sub	r8, r30
    199a:	e6 ea       	ldi	r30, 0xA6	; 166
    199c:	9e 0a       	sbc	r9, r30
    199e:	e4 ea       	ldi	r30, 0xA4	; 164
    19a0:	ae 0a       	sbc	r10, r30
    19a2:	ea e9       	ldi	r30, 0x9A	; 154
    19a4:	be 0a       	sbc	r11, r30
    19a6:	84 0e       	add	r8, r20
    19a8:	95 1e       	adc	r9, r21
    19aa:	a6 1e       	adc	r10, r22
    19ac:	b7 1e       	adc	r11, r23
    19ae:	b9 01       	movw	r22, r18
    19b0:	a8 01       	movw	r20, r16
    19b2:	40 95       	com	r20
    19b4:	50 95       	com	r21
    19b6:	60 95       	com	r22
    19b8:	70 95       	com	r23
    19ba:	48 2b       	or	r20, r24
    19bc:	59 2b       	or	r21, r25
    19be:	6a 2b       	or	r22, r26
    19c0:	7b 2b       	or	r23, r27
    19c2:	4c 25       	eor	r20, r12
    19c4:	5d 25       	eor	r21, r13
    19c6:	6e 25       	eor	r22, r14
    19c8:	7f 25       	eor	r23, r15
    19ca:	84 0e       	add	r8, r20
    19cc:	95 1e       	adc	r9, r21
    19ce:	a6 1e       	adc	r10, r22
    19d0:	b7 1e       	adc	r11, r23
    19d2:	b5 01       	movw	r22, r10
    19d4:	a4 01       	movw	r20, r8
    19d6:	e6 e0       	ldi	r30, 0x06	; 6
    19d8:	44 0f       	add	r20, r20
    19da:	55 1f       	adc	r21, r21
    19dc:	66 1f       	adc	r22, r22
    19de:	77 1f       	adc	r23, r23
    19e0:	ea 95       	dec	r30
    19e2:	01 f4       	brne	.+0      	; 0x19e4 <_Z11md5_processP11md5_state_sPKh+0x19e4>
    19e4:	fa e1       	ldi	r31, 0x1A	; 26
    19e6:	b6 94       	lsr	r11
    19e8:	a7 94       	ror	r10
    19ea:	97 94       	ror	r9
    19ec:	87 94       	ror	r8
    19ee:	fa 95       	dec	r31
    19f0:	01 f4       	brne	.+0      	; 0x19f2 <_Z11md5_processP11md5_state_sPKh+0x19f2>
    19f2:	84 2a       	or	r8, r20
    19f4:	95 2a       	or	r9, r21
    19f6:	a6 2a       	or	r10, r22
    19f8:	b7 2a       	or	r11, r23
    19fa:	88 0e       	add	r8, r24
    19fc:	99 1e       	adc	r9, r25
    19fe:	aa 1e       	adc	r10, r26
    1a00:	bb 1e       	adc	r11, r27
    1a02:	49 8d       	ldd	r20, Y+25	; 0x19
    1a04:	5a 8d       	ldd	r21, Y+26	; 0x1a
    1a06:	6b 8d       	ldd	r22, Y+27	; 0x1b
    1a08:	7c 8d       	ldd	r23, Y+28	; 0x1c
    1a0a:	4e 56       	subi	r20, 0x6E	; 110
    1a0c:	53 43       	sbci	r21, 0x33	; 51
    1a0e:	63 4f       	sbci	r22, 0xF3	; 243
    1a10:	70 47       	sbci	r23, 0x70	; 112
    1a12:	40 0f       	add	r20, r16
    1a14:	51 1f       	adc	r21, r17
    1a16:	62 1f       	adc	r22, r18
    1a18:	73 1f       	adc	r23, r19
    1a1a:	97 01       	movw	r18, r14
    1a1c:	86 01       	movw	r16, r12
    1a1e:	00 95       	com	r16
    1a20:	10 95       	com	r17
    1a22:	20 95       	com	r18
    1a24:	30 95       	com	r19
    1a26:	08 29       	or	r16, r8
    1a28:	19 29       	or	r17, r9
    1a2a:	2a 29       	or	r18, r10
    1a2c:	3b 29       	or	r19, r11
    1a2e:	08 27       	eor	r16, r24
    1a30:	19 27       	eor	r17, r25
    1a32:	2a 27       	eor	r18, r26
    1a34:	3b 27       	eor	r19, r27
    1a36:	40 0f       	add	r20, r16
    1a38:	51 1f       	adc	r21, r17
    1a3a:	62 1f       	adc	r22, r18
    1a3c:	73 1f       	adc	r23, r19
    1a3e:	8a 01       	movw	r16, r20
    1a40:	9b 01       	movw	r18, r22
    1a42:	ea e0       	ldi	r30, 0x0A	; 10
    1a44:	00 0f       	add	r16, r16
    1a46:	11 1f       	adc	r17, r17
    1a48:	22 1f       	adc	r18, r18
    1a4a:	33 1f       	adc	r19, r19
    1a4c:	ea 95       	dec	r30
    1a4e:	01 f4       	brne	.+0      	; 0x1a50 <_Z11md5_processP11md5_state_sPKh+0x1a50>
    1a50:	f6 e1       	ldi	r31, 0x16	; 22
    1a52:	76 95       	lsr	r23
    1a54:	67 95       	ror	r22
    1a56:	57 95       	ror	r21
    1a58:	47 95       	ror	r20
    1a5a:	fa 95       	dec	r31
    1a5c:	01 f4       	brne	.+0      	; 0x1a5e <_Z11md5_processP11md5_state_sPKh+0x1a5e>
    1a5e:	40 2b       	or	r20, r16
    1a60:	51 2b       	or	r21, r17
    1a62:	62 2b       	or	r22, r18
    1a64:	73 2b       	or	r23, r19
    1a66:	48 0d       	add	r20, r8
    1a68:	59 1d       	adc	r21, r9
    1a6a:	6a 1d       	adc	r22, r10
    1a6c:	7b 1d       	adc	r23, r11
    1a6e:	0d a9       	ldd	r16, Y+53	; 0x35
    1a70:	1e a9       	ldd	r17, Y+54	; 0x36
    1a72:	2f a9       	ldd	r18, Y+55	; 0x37
    1a74:	38 ad       	ldd	r19, Y+56	; 0x38
    1a76:	03 58       	subi	r16, 0x83	; 131
    1a78:	1b 40       	sbci	r17, 0x0B	; 11
    1a7a:	20 41       	sbci	r18, 0x10	; 16
    1a7c:	31 09       	sbc	r19, r1
    1a7e:	0c 0d       	add	r16, r12
    1a80:	1d 1d       	adc	r17, r13
    1a82:	2e 1d       	adc	r18, r14
    1a84:	3f 1d       	adc	r19, r15
    1a86:	6c 01       	movw	r12, r24
    1a88:	7d 01       	movw	r14, r26
    1a8a:	c0 94       	com	r12
    1a8c:	d0 94       	com	r13
    1a8e:	e0 94       	com	r14
    1a90:	f0 94       	com	r15
    1a92:	c4 2a       	or	r12, r20
    1a94:	d5 2a       	or	r13, r21
    1a96:	e6 2a       	or	r14, r22
    1a98:	f7 2a       	or	r15, r23
    1a9a:	c8 24       	eor	r12, r8
    1a9c:	d9 24       	eor	r13, r9
    1a9e:	ea 24       	eor	r14, r10
    1aa0:	fb 24       	eor	r15, r11
    1aa2:	0c 0d       	add	r16, r12
    1aa4:	1d 1d       	adc	r17, r13
    1aa6:	2e 1d       	adc	r18, r14
    1aa8:	3f 1d       	adc	r19, r15
    1aaa:	68 01       	movw	r12, r16
    1aac:	79 01       	movw	r14, r18
    1aae:	ef e0       	ldi	r30, 0x0F	; 15
    1ab0:	cc 0c       	add	r12, r12
    1ab2:	dd 1c       	adc	r13, r13
    1ab4:	ee 1c       	adc	r14, r14
    1ab6:	ff 1c       	adc	r15, r15
    1ab8:	ea 95       	dec	r30
    1aba:	01 f4       	brne	.+0      	; 0x1abc <_Z11md5_processP11md5_state_sPKh+0x1abc>
    1abc:	f1 e1       	ldi	r31, 0x11	; 17
    1abe:	36 95       	lsr	r19
    1ac0:	27 95       	ror	r18
    1ac2:	17 95       	ror	r17
    1ac4:	07 95       	ror	r16
    1ac6:	fa 95       	dec	r31
    1ac8:	01 f4       	brne	.+0      	; 0x1aca <_Z11md5_processP11md5_state_sPKh+0x1aca>
    1aca:	0c 29       	or	r16, r12
    1acc:	1d 29       	or	r17, r13
    1ace:	2e 29       	or	r18, r14
    1ad0:	3f 29       	or	r19, r15
    1ad2:	04 0f       	add	r16, r20
    1ad4:	15 1f       	adc	r17, r21
    1ad6:	26 1f       	adc	r18, r22
    1ad8:	37 1f       	adc	r19, r23
    1ada:	c9 88       	ldd	r12, Y+17	; 0x11
    1adc:	da 88       	ldd	r13, Y+18	; 0x12
    1ade:	eb 88       	ldd	r14, Y+19	; 0x13
    1ae0:	fc 88       	ldd	r15, Y+20	; 0x14
    1ae2:	ff e2       	ldi	r31, 0x2F	; 47
    1ae4:	cf 1a       	sub	r12, r31
    1ae6:	f2 ea       	ldi	r31, 0xA2	; 162
    1ae8:	df 0a       	sbc	r13, r31
    1aea:	fb e7       	ldi	r31, 0x7B	; 123
    1aec:	ef 0a       	sbc	r14, r31
    1aee:	fa e7       	ldi	r31, 0x7A	; 122
    1af0:	ff 0a       	sbc	r15, r31
    1af2:	c8 0e       	add	r12, r24
    1af4:	d9 1e       	adc	r13, r25
    1af6:	ea 1e       	adc	r14, r26
    1af8:	fb 1e       	adc	r15, r27
    1afa:	d5 01       	movw	r26, r10
    1afc:	c4 01       	movw	r24, r8
    1afe:	80 95       	com	r24
    1b00:	90 95       	com	r25
    1b02:	a0 95       	com	r26
    1b04:	b0 95       	com	r27
    1b06:	80 2b       	or	r24, r16
    1b08:	91 2b       	or	r25, r17
    1b0a:	a2 2b       	or	r26, r18
    1b0c:	b3 2b       	or	r27, r19
    1b0e:	84 27       	eor	r24, r20
    1b10:	95 27       	eor	r25, r21
    1b12:	a6 27       	eor	r26, r22
    1b14:	b7 27       	eor	r27, r23
    1b16:	c8 0e       	add	r12, r24
    1b18:	d9 1e       	adc	r13, r25
    1b1a:	ea 1e       	adc	r14, r26
    1b1c:	fb 1e       	adc	r15, r27
    1b1e:	d7 01       	movw	r26, r14
    1b20:	c6 01       	movw	r24, r12
    1b22:	e5 e1       	ldi	r30, 0x15	; 21
    1b24:	88 0f       	add	r24, r24
    1b26:	99 1f       	adc	r25, r25
    1b28:	aa 1f       	adc	r26, r26
    1b2a:	bb 1f       	adc	r27, r27
    1b2c:	ea 95       	dec	r30
    1b2e:	01 f4       	brne	.+0      	; 0x1b30 <_Z11md5_processP11md5_state_sPKh+0x1b30>
    1b30:	fb e0       	ldi	r31, 0x0B	; 11
    1b32:	f6 94       	lsr	r15
    1b34:	e7 94       	ror	r14
    1b36:	d7 94       	ror	r13
    1b38:	c7 94       	ror	r12
    1b3a:	fa 95       	dec	r31
    1b3c:	01 f4       	brne	.+0      	; 0x1b3e <_Z11md5_processP11md5_state_sPKh+0x1b3e>
    1b3e:	c8 2a       	or	r12, r24
    1b40:	d9 2a       	or	r13, r25
    1b42:	ea 2a       	or	r14, r26
    1b44:	fb 2a       	or	r15, r27
    1b46:	c0 0e       	add	r12, r16
    1b48:	d1 1e       	adc	r13, r17
    1b4a:	e2 1e       	adc	r14, r18
    1b4c:	f3 1e       	adc	r15, r19
    1b4e:	8d a5       	ldd	r24, Y+45	; 0x2d
    1b50:	9e a5       	ldd	r25, Y+46	; 0x2e
    1b52:	af a5       	ldd	r26, Y+47	; 0x2f
    1b54:	b8 a9       	ldd	r27, Y+48	; 0x30
    1b56:	81 5b       	subi	r24, 0xB1	; 177
    1b58:	91 48       	sbci	r25, 0x81	; 129
    1b5a:	a7 45       	sbci	r26, 0x57	; 87
    1b5c:	b0 49       	sbci	r27, 0x90	; 144
    1b5e:	88 0d       	add	r24, r8
    1b60:	99 1d       	adc	r25, r9
    1b62:	aa 1d       	adc	r26, r10
    1b64:	bb 1d       	adc	r27, r11
    1b66:	4a 01       	movw	r8, r20
    1b68:	5b 01       	movw	r10, r22
    1b6a:	80 94       	com	r8
    1b6c:	90 94       	com	r9
    1b6e:	a0 94       	com	r10
    1b70:	b0 94       	com	r11
    1b72:	8c 28       	or	r8, r12
    1b74:	9d 28       	or	r9, r13
    1b76:	ae 28       	or	r10, r14
    1b78:	bf 28       	or	r11, r15
    1b7a:	80 26       	eor	r8, r16
    1b7c:	91 26       	eor	r9, r17
    1b7e:	a2 26       	eor	r10, r18
    1b80:	b3 26       	eor	r11, r19
    1b82:	88 0d       	add	r24, r8
    1b84:	99 1d       	adc	r25, r9
    1b86:	aa 1d       	adc	r26, r10
    1b88:	bb 1d       	adc	r27, r11
    1b8a:	4c 01       	movw	r8, r24
    1b8c:	5d 01       	movw	r10, r26
    1b8e:	e6 e0       	ldi	r30, 0x06	; 6
    1b90:	88 0c       	add	r8, r8
    1b92:	99 1c       	adc	r9, r9
    1b94:	aa 1c       	adc	r10, r10
    1b96:	bb 1c       	adc	r11, r11
    1b98:	ea 95       	dec	r30
    1b9a:	01 f4       	brne	.+0      	; 0x1b9c <_Z11md5_processP11md5_state_sPKh+0x1b9c>
    1b9c:	fa e1       	ldi	r31, 0x1A	; 26
    1b9e:	b6 95       	lsr	r27
    1ba0:	a7 95       	ror	r26
    1ba2:	97 95       	ror	r25
    1ba4:	87 95       	ror	r24
    1ba6:	fa 95       	dec	r31
    1ba8:	01 f4       	brne	.+0      	; 0x1baa <_Z11md5_processP11md5_state_sPKh+0x1baa>
    1baa:	88 29       	or	r24, r8
    1bac:	99 29       	or	r25, r9
    1bae:	aa 29       	or	r26, r10
    1bb0:	bb 29       	or	r27, r11
    1bb2:	8c 0d       	add	r24, r12
    1bb4:	9d 1d       	adc	r25, r13
    1bb6:	ae 1d       	adc	r26, r14
    1bb8:	bf 1d       	adc	r27, r15
    1bba:	2d 96       	adiw	r28, 0x0d	; 13
    1bbc:	8c ac       	ldd	r8, Y+60	; 0x3c
    1bbe:	9d ac       	ldd	r9, Y+61	; 0x3d
    1bc0:	ae ac       	ldd	r10, Y+62	; 0x3e
    1bc2:	bf ac       	ldd	r11, Y+63	; 0x3f
    1bc4:	2d 97       	sbiw	r28, 0x0d	; 13
    1bc6:	e0 e2       	ldi	r30, 0x20	; 32
    1bc8:	8e 1a       	sub	r8, r30
    1bca:	e9 e1       	ldi	r30, 0x19	; 25
    1bcc:	9e 0a       	sbc	r9, r30
    1bce:	e3 ed       	ldi	r30, 0xD3	; 211
    1bd0:	ae 0a       	sbc	r10, r30
    1bd2:	e1 e0       	ldi	r30, 0x01	; 1
    1bd4:	be 0a       	sbc	r11, r30
    1bd6:	84 0e       	add	r8, r20
    1bd8:	95 1e       	adc	r9, r21
    1bda:	a6 1e       	adc	r10, r22
    1bdc:	b7 1e       	adc	r11, r23
    1bde:	b9 01       	movw	r22, r18
    1be0:	a8 01       	movw	r20, r16
    1be2:	40 95       	com	r20
    1be4:	50 95       	com	r21
    1be6:	60 95       	com	r22
    1be8:	70 95       	com	r23
    1bea:	48 2b       	or	r20, r24
    1bec:	59 2b       	or	r21, r25
    1bee:	6a 2b       	or	r22, r26
    1bf0:	7b 2b       	or	r23, r27
    1bf2:	4c 25       	eor	r20, r12
    1bf4:	5d 25       	eor	r21, r13
    1bf6:	6e 25       	eor	r22, r14
    1bf8:	7f 25       	eor	r23, r15
    1bfa:	84 0e       	add	r8, r20
    1bfc:	95 1e       	adc	r9, r21
    1bfe:	a6 1e       	adc	r10, r22
    1c00:	b7 1e       	adc	r11, r23
    1c02:	b5 01       	movw	r22, r10
    1c04:	a4 01       	movw	r20, r8
    1c06:	ea e0       	ldi	r30, 0x0A	; 10
    1c08:	44 0f       	add	r20, r20
    1c0a:	55 1f       	adc	r21, r21
    1c0c:	66 1f       	adc	r22, r22
    1c0e:	77 1f       	adc	r23, r23
    1c10:	ea 95       	dec	r30
    1c12:	01 f4       	brne	.+0      	; 0x1c14 <_Z11md5_processP11md5_state_sPKh+0x1c14>
    1c14:	f6 e1       	ldi	r31, 0x16	; 22
    1c16:	b6 94       	lsr	r11
    1c18:	a7 94       	ror	r10
    1c1a:	97 94       	ror	r9
    1c1c:	87 94       	ror	r8
    1c1e:	fa 95       	dec	r31
    1c20:	01 f4       	brne	.+0      	; 0x1c22 <_Z11md5_processP11md5_state_sPKh+0x1c22>
    1c22:	84 2a       	or	r8, r20
    1c24:	95 2a       	or	r9, r21
    1c26:	a6 2a       	or	r10, r22
    1c28:	b7 2a       	or	r11, r23
    1c2a:	88 0e       	add	r8, r24
    1c2c:	99 1e       	adc	r9, r25
    1c2e:	aa 1e       	adc	r10, r26
    1c30:	bb 1e       	adc	r11, r27
    1c32:	4d a1       	ldd	r20, Y+37	; 0x25
    1c34:	5e a1       	ldd	r21, Y+38	; 0x26
    1c36:	6f a1       	ldd	r22, Y+39	; 0x27
    1c38:	78 a5       	ldd	r23, Y+40	; 0x28
    1c3a:	4c 5e       	subi	r20, 0xEC	; 236
    1c3c:	5c 4b       	sbci	r21, 0xBC	; 188
    1c3e:	6e 4f       	sbci	r22, 0xFE	; 254
    1c40:	7c 45       	sbci	r23, 0x5C	; 92
    1c42:	40 0f       	add	r20, r16
    1c44:	51 1f       	adc	r21, r17
    1c46:	62 1f       	adc	r22, r18
    1c48:	73 1f       	adc	r23, r19
    1c4a:	97 01       	movw	r18, r14
    1c4c:	86 01       	movw	r16, r12
    1c4e:	00 95       	com	r16
    1c50:	10 95       	com	r17
    1c52:	20 95       	com	r18
    1c54:	30 95       	com	r19
    1c56:	08 29       	or	r16, r8
    1c58:	19 29       	or	r17, r9
    1c5a:	2a 29       	or	r18, r10
    1c5c:	3b 29       	or	r19, r11
    1c5e:	08 27       	eor	r16, r24
    1c60:	19 27       	eor	r17, r25
    1c62:	2a 27       	eor	r18, r26
    1c64:	3b 27       	eor	r19, r27
    1c66:	40 0f       	add	r20, r16
    1c68:	51 1f       	adc	r21, r17
    1c6a:	62 1f       	adc	r22, r18
    1c6c:	73 1f       	adc	r23, r19
    1c6e:	8a 01       	movw	r16, r20
    1c70:	9b 01       	movw	r18, r22
    1c72:	ef e0       	ldi	r30, 0x0F	; 15
    1c74:	00 0f       	add	r16, r16
    1c76:	11 1f       	adc	r17, r17
    1c78:	22 1f       	adc	r18, r18
    1c7a:	33 1f       	adc	r19, r19
    1c7c:	ea 95       	dec	r30
    1c7e:	01 f4       	brne	.+0      	; 0x1c80 <_Z11md5_processP11md5_state_sPKh+0x1c80>
    1c80:	f1 e1       	ldi	r31, 0x11	; 17
    1c82:	76 95       	lsr	r23
    1c84:	67 95       	ror	r22
    1c86:	57 95       	ror	r21
    1c88:	47 95       	ror	r20
    1c8a:	fa 95       	dec	r31
    1c8c:	01 f4       	brne	.+0      	; 0x1c8e <_Z11md5_processP11md5_state_sPKh+0x1c8e>
    1c8e:	40 2b       	or	r20, r16
    1c90:	51 2b       	or	r21, r17
    1c92:	62 2b       	or	r22, r18
    1c94:	73 2b       	or	r23, r19
    1c96:	48 0d       	add	r20, r8
    1c98:	59 1d       	adc	r21, r9
    1c9a:	6a 1d       	adc	r22, r10
    1c9c:	7b 1d       	adc	r23, r11
    1c9e:	25 96       	adiw	r28, 0x05	; 5
    1ca0:	0c ad       	ldd	r16, Y+60	; 0x3c
    1ca2:	1d ad       	ldd	r17, Y+61	; 0x3d
    1ca4:	2e ad       	ldd	r18, Y+62	; 0x3e
    1ca6:	3f ad       	ldd	r19, Y+63	; 0x3f
    1ca8:	25 97       	sbiw	r28, 0x05	; 5
    1caa:	0f 55       	subi	r16, 0x5F	; 95
    1cac:	1e 4e       	sbci	r17, 0xEE	; 238
    1cae:	27 4f       	sbci	r18, 0xF7	; 247
    1cb0:	31 4b       	sbci	r19, 0xB1	; 177
    1cb2:	0c 0d       	add	r16, r12
    1cb4:	1d 1d       	adc	r17, r13
    1cb6:	2e 1d       	adc	r18, r14
    1cb8:	3f 1d       	adc	r19, r15
    1cba:	6c 01       	movw	r12, r24
    1cbc:	7d 01       	movw	r14, r26
    1cbe:	c0 94       	com	r12
    1cc0:	d0 94       	com	r13
    1cc2:	e0 94       	com	r14
    1cc4:	f0 94       	com	r15
    1cc6:	c4 2a       	or	r12, r20
    1cc8:	d5 2a       	or	r13, r21
    1cca:	e6 2a       	or	r14, r22
    1ccc:	f7 2a       	or	r15, r23
    1cce:	c8 24       	eor	r12, r8
    1cd0:	d9 24       	eor	r13, r9
    1cd2:	ea 24       	eor	r14, r10
    1cd4:	fb 24       	eor	r15, r11
    1cd6:	0c 0d       	add	r16, r12
    1cd8:	1d 1d       	adc	r17, r13
    1cda:	2e 1d       	adc	r18, r14
    1cdc:	3f 1d       	adc	r19, r15
    1cde:	68 01       	movw	r12, r16
    1ce0:	79 01       	movw	r14, r18
    1ce2:	e5 e1       	ldi	r30, 0x15	; 21
    1ce4:	cc 0c       	add	r12, r12
    1ce6:	dd 1c       	adc	r13, r13
    1ce8:	ee 1c       	adc	r14, r14
    1cea:	ff 1c       	adc	r15, r15
    1cec:	ea 95       	dec	r30
    1cee:	01 f4       	brne	.+0      	; 0x1cf0 <_Z11md5_processP11md5_state_sPKh+0x1cf0>
    1cf0:	fb e0       	ldi	r31, 0x0B	; 11
    1cf2:	36 95       	lsr	r19
    1cf4:	27 95       	ror	r18
    1cf6:	17 95       	ror	r17
    1cf8:	07 95       	ror	r16
    1cfa:	fa 95       	dec	r31
    1cfc:	01 f4       	brne	.+0      	; 0x1cfe <_Z11md5_processP11md5_state_sPKh+0x1cfe>
    1cfe:	0c 29       	or	r16, r12
    1d00:	1d 29       	or	r17, r13
    1d02:	2e 29       	or	r18, r14
    1d04:	3f 29       	or	r19, r15
    1d06:	04 0f       	add	r16, r20
    1d08:	15 1f       	adc	r17, r21
    1d0a:	26 1f       	adc	r18, r22
    1d0c:	37 1f       	adc	r19, r23
    1d0e:	cd 8c       	ldd	r12, Y+29	; 0x1d
    1d10:	de 8c       	ldd	r13, Y+30	; 0x1e
    1d12:	ef 8c       	ldd	r14, Y+31	; 0x1f
    1d14:	f8 a0       	ldd	r15, Y+32	; 0x20
    1d16:	fe e7       	ldi	r31, 0x7E	; 126
    1d18:	cf 1a       	sub	r12, r31
    1d1a:	f1 e8       	ldi	r31, 0x81	; 129
    1d1c:	df 0a       	sbc	r13, r31
    1d1e:	fc ea       	ldi	r31, 0xAC	; 172
    1d20:	ef 0a       	sbc	r14, r31
    1d22:	f8 e0       	ldi	r31, 0x08	; 8
    1d24:	ff 0a       	sbc	r15, r31
    1d26:	c8 0e       	add	r12, r24
    1d28:	d9 1e       	adc	r13, r25
    1d2a:	ea 1e       	adc	r14, r26
    1d2c:	fb 1e       	adc	r15, r27
    1d2e:	d5 01       	movw	r26, r10
    1d30:	c4 01       	movw	r24, r8
    1d32:	80 95       	com	r24
    1d34:	90 95       	com	r25
    1d36:	a0 95       	com	r26
    1d38:	b0 95       	com	r27
    1d3a:	80 2b       	or	r24, r16
    1d3c:	91 2b       	or	r25, r17
    1d3e:	a2 2b       	or	r26, r18
    1d40:	b3 2b       	or	r27, r19
    1d42:	84 27       	eor	r24, r20
    1d44:	95 27       	eor	r25, r21
    1d46:	a6 27       	eor	r26, r22
    1d48:	b7 27       	eor	r27, r23
    1d4a:	c8 0e       	add	r12, r24
    1d4c:	d9 1e       	adc	r13, r25
    1d4e:	ea 1e       	adc	r14, r26
    1d50:	fb 1e       	adc	r15, r27
    1d52:	d7 01       	movw	r26, r14
    1d54:	c6 01       	movw	r24, r12
    1d56:	e6 e0       	ldi	r30, 0x06	; 6
    1d58:	88 0f       	add	r24, r24
    1d5a:	99 1f       	adc	r25, r25
    1d5c:	aa 1f       	adc	r26, r26
    1d5e:	bb 1f       	adc	r27, r27
    1d60:	ea 95       	dec	r30
    1d62:	01 f4       	brne	.+0      	; 0x1d64 <_Z11md5_processP11md5_state_sPKh+0x1d64>
    1d64:	fa e1       	ldi	r31, 0x1A	; 26
    1d66:	f6 94       	lsr	r15
    1d68:	e7 94       	ror	r14
    1d6a:	d7 94       	ror	r13
    1d6c:	c7 94       	ror	r12
    1d6e:	fa 95       	dec	r31
    1d70:	01 f4       	brne	.+0      	; 0x1d72 <_Z11md5_processP11md5_state_sPKh+0x1d72>
    1d72:	c8 2a       	or	r12, r24
    1d74:	d9 2a       	or	r13, r25
    1d76:	ea 2a       	or	r14, r26
    1d78:	fb 2a       	or	r15, r27
    1d7a:	c0 0e       	add	r12, r16
    1d7c:	d1 1e       	adc	r13, r17
    1d7e:	e2 1e       	adc	r14, r18
    1d80:	f3 1e       	adc	r15, r19
    1d82:	89 ad       	ldd	r24, Y+57	; 0x39
    1d84:	9a ad       	ldd	r25, Y+58	; 0x3a
    1d86:	ab ad       	ldd	r26, Y+59	; 0x3b
    1d88:	bc ad       	ldd	r27, Y+60	; 0x3c
    1d8a:	8b 5c       	subi	r24, 0xCB	; 203
    1d8c:	9d 40       	sbci	r25, 0x0D	; 13
    1d8e:	a5 4c       	sbci	r26, 0xC5	; 197
    1d90:	b2 44       	sbci	r27, 0x42	; 66
    1d92:	88 0d       	add	r24, r8
    1d94:	99 1d       	adc	r25, r9
    1d96:	aa 1d       	adc	r26, r10
    1d98:	bb 1d       	adc	r27, r11
    1d9a:	4a 01       	movw	r8, r20
    1d9c:	5b 01       	movw	r10, r22
    1d9e:	80 94       	com	r8
    1da0:	90 94       	com	r9
    1da2:	a0 94       	com	r10
    1da4:	b0 94       	com	r11
    1da6:	8c 28       	or	r8, r12
    1da8:	9d 28       	or	r9, r13
    1daa:	ae 28       	or	r10, r14
    1dac:	bf 28       	or	r11, r15
    1dae:	80 26       	eor	r8, r16
    1db0:	91 26       	eor	r9, r17
    1db2:	a2 26       	eor	r10, r18
    1db4:	b3 26       	eor	r11, r19
    1db6:	88 0d       	add	r24, r8
    1db8:	99 1d       	adc	r25, r9
    1dba:	aa 1d       	adc	r26, r10
    1dbc:	bb 1d       	adc	r27, r11
    1dbe:	4c 01       	movw	r8, r24
    1dc0:	5d 01       	movw	r10, r26
    1dc2:	ea e0       	ldi	r30, 0x0A	; 10
    1dc4:	88 0c       	add	r8, r8
    1dc6:	99 1c       	adc	r9, r9
    1dc8:	aa 1c       	adc	r10, r10
    1dca:	bb 1c       	adc	r11, r11
    1dcc:	ea 95       	dec	r30
    1dce:	01 f4       	brne	.+0      	; 0x1dd0 <_Z11md5_processP11md5_state_sPKh+0x1dd0>
    1dd0:	f6 e1       	ldi	r31, 0x16	; 22
    1dd2:	b6 95       	lsr	r27
    1dd4:	a7 95       	ror	r26
    1dd6:	97 95       	ror	r25
    1dd8:	87 95       	ror	r24
    1dda:	fa 95       	dec	r31
    1ddc:	01 f4       	brne	.+0      	; 0x1dde <_Z11md5_processP11md5_state_sPKh+0x1dde>
    1dde:	88 29       	or	r24, r8
    1de0:	99 29       	or	r25, r9
    1de2:	aa 29       	or	r26, r10
    1de4:	bb 29       	or	r27, r11
    1de6:	8c 0d       	add	r24, r12
    1de8:	9d 1d       	adc	r25, r13
    1dea:	ae 1d       	adc	r26, r14
    1dec:	bf 1d       	adc	r27, r15
    1dee:	8d 88       	ldd	r8, Y+21	; 0x15
    1df0:	9e 88       	ldd	r9, Y+22	; 0x16
    1df2:	af 88       	ldd	r10, Y+23	; 0x17
    1df4:	b8 8c       	ldd	r11, Y+24	; 0x18
    1df6:	e5 e4       	ldi	r30, 0x45	; 69
    1df8:	8e 1a       	sub	r8, r30
    1dfa:	ed e2       	ldi	r30, 0x2D	; 45
    1dfc:	9e 0a       	sbc	r9, r30
    1dfe:	e8 e2       	ldi	r30, 0x28	; 40
    1e00:	ae 0a       	sbc	r10, r30
    1e02:	e5 ed       	ldi	r30, 0xD5	; 213
    1e04:	be 0a       	sbc	r11, r30
    1e06:	84 0e       	add	r8, r20
    1e08:	95 1e       	adc	r9, r21
    1e0a:	a6 1e       	adc	r10, r22
    1e0c:	b7 1e       	adc	r11, r23
    1e0e:	b9 01       	movw	r22, r18
    1e10:	a8 01       	movw	r20, r16
    1e12:	40 95       	com	r20
    1e14:	50 95       	com	r21
    1e16:	60 95       	com	r22
    1e18:	70 95       	com	r23
    1e1a:	48 2b       	or	r20, r24
    1e1c:	59 2b       	or	r21, r25
    1e1e:	6a 2b       	or	r22, r26
    1e20:	7b 2b       	or	r23, r27
    1e22:	4c 25       	eor	r20, r12
    1e24:	5d 25       	eor	r21, r13
    1e26:	6e 25       	eor	r22, r14
    1e28:	7f 25       	eor	r23, r15
    1e2a:	84 0e       	add	r8, r20
    1e2c:	95 1e       	adc	r9, r21
    1e2e:	a6 1e       	adc	r10, r22
    1e30:	b7 1e       	adc	r11, r23
    1e32:	b5 01       	movw	r22, r10
    1e34:	a4 01       	movw	r20, r8
    1e36:	ef e0       	ldi	r30, 0x0F	; 15
    1e38:	44 0f       	add	r20, r20
    1e3a:	55 1f       	adc	r21, r21
    1e3c:	66 1f       	adc	r22, r22
    1e3e:	77 1f       	adc	r23, r23
    1e40:	ea 95       	dec	r30
    1e42:	01 f4       	brne	.+0      	; 0x1e44 <_Z11md5_processP11md5_state_sPKh+0x1e44>
    1e44:	f1 e1       	ldi	r31, 0x11	; 17
    1e46:	b6 94       	lsr	r11
    1e48:	a7 94       	ror	r10
    1e4a:	97 94       	ror	r9
    1e4c:	87 94       	ror	r8
    1e4e:	fa 95       	dec	r31
    1e50:	01 f4       	brne	.+0      	; 0x1e52 <_Z11md5_processP11md5_state_sPKh+0x1e52>
    1e52:	84 2a       	or	r8, r20
    1e54:	95 2a       	or	r9, r21
    1e56:	a6 2a       	or	r10, r22
    1e58:	b7 2a       	or	r11, r23
    1e5a:	88 0e       	add	r8, r24
    1e5c:	99 1e       	adc	r9, r25
    1e5e:	aa 1e       	adc	r10, r26
    1e60:	bb 1e       	adc	r11, r27
    1e62:	65 96       	adiw	r28, 0x15	; 21
    1e64:	4c ad       	ldd	r20, Y+60	; 0x3c
    1e66:	5d ad       	ldd	r21, Y+61	; 0x3d
    1e68:	6e ad       	ldd	r22, Y+62	; 0x3e
    1e6a:	7f ad       	ldd	r23, Y+63	; 0x3f
    1e6c:	65 97       	sbiw	r28, 0x15	; 21
    1e6e:	4c 0d       	add	r20, r12
    1e70:	5d 1d       	adc	r21, r13
    1e72:	6e 1d       	adc	r22, r14
    1e74:	7f 1d       	adc	r23, r15
    1e76:	6b 96       	adiw	r28, 0x1b	; 27
    1e78:	ee ad       	ldd	r30, Y+62	; 0x3e
    1e7a:	ff ad       	ldd	r31, Y+63	; 0x3f
    1e7c:	6b 97       	sbiw	r28, 0x1b	; 27
    1e7e:	40 87       	std	Z+8, r20	; 0x08
    1e80:	51 87       	std	Z+9, r21	; 0x09
    1e82:	62 87       	std	Z+10, r22	; 0x0a
    1e84:	73 87       	std	Z+11, r23	; 0x0b
    1e86:	4d 81       	ldd	r20, Y+5	; 0x05
    1e88:	5e 81       	ldd	r21, Y+6	; 0x06
    1e8a:	6f 81       	ldd	r22, Y+7	; 0x07
    1e8c:	78 85       	ldd	r23, Y+8	; 0x08
    1e8e:	48 0d       	add	r20, r8
    1e90:	59 1d       	adc	r21, r9
    1e92:	6a 1d       	adc	r22, r10
    1e94:	7b 1d       	adc	r23, r11
    1e96:	49 a8       	ldd	r4, Y+49	; 0x31
    1e98:	5a a8       	ldd	r5, Y+50	; 0x32
    1e9a:	6b a8       	ldd	r6, Y+51	; 0x33
    1e9c:	7c a8       	ldd	r7, Y+52	; 0x34
    1e9e:	ff e6       	ldi	r31, 0x6F	; 111
    1ea0:	4f 1a       	sub	r4, r31
    1ea2:	fc e2       	ldi	r31, 0x2C	; 44
    1ea4:	5f 0a       	sbc	r5, r31
    1ea6:	f9 e7       	ldi	r31, 0x79	; 121
    1ea8:	6f 0a       	sbc	r6, r31
    1eaa:	f4 e1       	ldi	r31, 0x14	; 20
    1eac:	7f 0a       	sbc	r7, r31
    1eae:	40 0e       	add	r4, r16
    1eb0:	51 1e       	adc	r5, r17
    1eb2:	62 1e       	adc	r6, r18
    1eb4:	73 1e       	adc	r7, r19
    1eb6:	c0 94       	com	r12
    1eb8:	d0 94       	com	r13
    1eba:	e0 94       	com	r14
    1ebc:	f0 94       	com	r15
    1ebe:	c8 28       	or	r12, r8
    1ec0:	d9 28       	or	r13, r9
    1ec2:	ea 28       	or	r14, r10
    1ec4:	fb 28       	or	r15, r11
    1ec6:	c8 26       	eor	r12, r24
    1ec8:	d9 26       	eor	r13, r25
    1eca:	ea 26       	eor	r14, r26
    1ecc:	fb 26       	eor	r15, r27
    1ece:	4c 0c       	add	r4, r12
    1ed0:	5d 1c       	adc	r5, r13
    1ed2:	6e 1c       	adc	r6, r14
    1ed4:	7f 1c       	adc	r7, r15
    1ed6:	93 01       	movw	r18, r6
    1ed8:	82 01       	movw	r16, r4
    1eda:	e5 e1       	ldi	r30, 0x15	; 21
    1edc:	00 0f       	add	r16, r16
    1ede:	11 1f       	adc	r17, r17
    1ee0:	22 1f       	adc	r18, r18
    1ee2:	33 1f       	adc	r19, r19
    1ee4:	ea 95       	dec	r30
    1ee6:	01 f4       	brne	.+0      	; 0x1ee8 <_Z11md5_processP11md5_state_sPKh+0x1ee8>
    1ee8:	fb e0       	ldi	r31, 0x0B	; 11
    1eea:	76 94       	lsr	r7
    1eec:	67 94       	ror	r6
    1eee:	57 94       	ror	r5
    1ef0:	47 94       	ror	r4
    1ef2:	fa 95       	dec	r31
    1ef4:	01 f4       	brne	.+0      	; 0x1ef6 <_Z11md5_processP11md5_state_sPKh+0x1ef6>
    1ef6:	04 29       	or	r16, r4
    1ef8:	15 29       	or	r17, r5
    1efa:	26 29       	or	r18, r6
    1efc:	37 29       	or	r19, r7
    1efe:	40 0f       	add	r20, r16
    1f00:	51 1f       	adc	r21, r17
    1f02:	62 1f       	adc	r22, r18
    1f04:	73 1f       	adc	r23, r19
    1f06:	6b 96       	adiw	r28, 0x1b	; 27
    1f08:	ee ad       	ldd	r30, Y+62	; 0x3e
    1f0a:	ff ad       	ldd	r31, Y+63	; 0x3f
    1f0c:	6b 97       	sbiw	r28, 0x1b	; 27
    1f0e:	44 87       	std	Z+12, r20	; 0x0c
    1f10:	55 87       	std	Z+13, r21	; 0x0d
    1f12:	66 87       	std	Z+14, r22	; 0x0e
    1f14:	77 87       	std	Z+15, r23	; 0x0f
    1f16:	49 84       	ldd	r4, Y+9	; 0x09
    1f18:	5a 84       	ldd	r5, Y+10	; 0x0a
    1f1a:	6b 84       	ldd	r6, Y+11	; 0x0b
    1f1c:	7c 84       	ldd	r7, Y+12	; 0x0c
    1f1e:	84 0c       	add	r8, r4
    1f20:	95 1c       	adc	r9, r5
    1f22:	a6 1c       	adc	r10, r6
    1f24:	b7 1c       	adc	r11, r7
    1f26:	80 8a       	std	Z+16, r8	; 0x10
    1f28:	91 8a       	std	Z+17, r9	; 0x11
    1f2a:	a2 8a       	std	Z+18, r10	; 0x12
    1f2c:	b3 8a       	std	Z+19, r11	; 0x13
    1f2e:	61 96       	adiw	r28, 0x11	; 17
    1f30:	4c ac       	ldd	r4, Y+60	; 0x3c
    1f32:	5d ac       	ldd	r5, Y+61	; 0x3d
    1f34:	6e ac       	ldd	r6, Y+62	; 0x3e
    1f36:	7f ac       	ldd	r7, Y+63	; 0x3f
    1f38:	61 97       	sbiw	r28, 0x11	; 17
    1f3a:	84 0d       	add	r24, r4
    1f3c:	95 1d       	adc	r25, r5
    1f3e:	a6 1d       	adc	r26, r6
    1f40:	b7 1d       	adc	r27, r7
    1f42:	84 8b       	std	Z+20, r24	; 0x14
    1f44:	95 8b       	std	Z+21, r25	; 0x15
    1f46:	a6 8b       	std	Z+22, r26	; 0x16
    1f48:	b7 8b       	std	Z+23, r27	; 0x17
    1f4a:	c6 5a       	subi	r28, 0xA6	; 166
    1f4c:	df 4f       	sbci	r29, 0xFF	; 255
    1f4e:	0f b6       	in	r0, 0x3f	; 63
    1f50:	f8 94       	cli
    1f52:	de bf       	out	0x3e, r29	; 62
    1f54:	0f be       	out	0x3f, r0	; 63
    1f56:	cd bf       	out	0x3d, r28	; 61
    1f58:	df 91       	pop	r29
    1f5a:	cf 91       	pop	r28
    1f5c:	1f 91       	pop	r17
    1f5e:	0f 91       	pop	r16
    1f60:	ff 90       	pop	r15
    1f62:	ef 90       	pop	r14
    1f64:	df 90       	pop	r13
    1f66:	cf 90       	pop	r12
    1f68:	bf 90       	pop	r11
    1f6a:	af 90       	pop	r10
    1f6c:	9f 90       	pop	r9
    1f6e:	8f 90       	pop	r8
    1f70:	7f 90       	pop	r7
    1f72:	6f 90       	pop	r6
    1f74:	5f 90       	pop	r5
    1f76:	4f 90       	pop	r4
    1f78:	3f 90       	pop	r3
    1f7a:	2f 90       	pop	r2
    1f7c:	08 95       	ret

Disassembly of section .text._Z8md5_initP11md5_state_s:

00000000 <_Z8md5_initP11md5_state_s>:
   0:	fc 01       	movw	r30, r24
   2:	14 82       	std	Z+4, r1	; 0x04
   4:	15 82       	std	Z+5, r1	; 0x05
   6:	16 82       	std	Z+6, r1	; 0x06
   8:	17 82       	std	Z+7, r1	; 0x07
   a:	10 82       	st	Z, r1
   c:	11 82       	std	Z+1, r1	; 0x01
   e:	12 82       	std	Z+2, r1	; 0x02
  10:	13 82       	std	Z+3, r1	; 0x03
  12:	81 e0       	ldi	r24, 0x01	; 1
  14:	93 e2       	ldi	r25, 0x23	; 35
  16:	a5 e4       	ldi	r26, 0x45	; 69
  18:	b7 e6       	ldi	r27, 0x67	; 103
  1a:	80 87       	std	Z+8, r24	; 0x08
  1c:	91 87       	std	Z+9, r25	; 0x09
  1e:	a2 87       	std	Z+10, r26	; 0x0a
  20:	b3 87       	std	Z+11, r27	; 0x0b
  22:	49 e8       	ldi	r20, 0x89	; 137
  24:	5b ea       	ldi	r21, 0xAB	; 171
  26:	6d ec       	ldi	r22, 0xCD	; 205
  28:	7f ee       	ldi	r23, 0xEF	; 239
  2a:	44 87       	std	Z+12, r20	; 0x0c
  2c:	55 87       	std	Z+13, r21	; 0x0d
  2e:	66 87       	std	Z+14, r22	; 0x0e
  30:	77 87       	std	Z+15, r23	; 0x0f
  32:	4e ef       	ldi	r20, 0xFE	; 254
  34:	5c ed       	ldi	r21, 0xDC	; 220
  36:	6a eb       	ldi	r22, 0xBA	; 186
  38:	78 e9       	ldi	r23, 0x98	; 152
  3a:	40 8b       	std	Z+16, r20	; 0x10
  3c:	51 8b       	std	Z+17, r21	; 0x11
  3e:	62 8b       	std	Z+18, r22	; 0x12
  40:	73 8b       	std	Z+19, r23	; 0x13
  42:	46 e7       	ldi	r20, 0x76	; 118
  44:	54 e5       	ldi	r21, 0x54	; 84
  46:	62 e3       	ldi	r22, 0x32	; 50
  48:	70 e1       	ldi	r23, 0x10	; 16
  4a:	44 8b       	std	Z+20, r20	; 0x14
  4c:	55 8b       	std	Z+21, r21	; 0x15
  4e:	66 8b       	std	Z+22, r22	; 0x16
  50:	77 8b       	std	Z+23, r23	; 0x17
  52:	08 95       	ret

Disassembly of section .text._Z10md5_appendP11md5_state_sPKhm:

00000000 <_Z10md5_appendP11md5_state_sPKhm>:
   0:	4f 92       	push	r4
   2:	5f 92       	push	r5
   4:	6f 92       	push	r6
   6:	7f 92       	push	r7
   8:	8f 92       	push	r8
   a:	9f 92       	push	r9
   c:	af 92       	push	r10
   e:	bf 92       	push	r11
  10:	cf 92       	push	r12
  12:	df 92       	push	r13
  14:	ef 92       	push	r14
  16:	ff 92       	push	r15
  18:	0f 93       	push	r16
  1a:	1f 93       	push	r17
  1c:	cf 93       	push	r28
  1e:	df 93       	push	r29
  20:	ec 01       	movw	r28, r24
  22:	8b 01       	movw	r16, r22
  24:	69 01       	movw	r12, r18
  26:	7a 01       	movw	r14, r20
  28:	88 81       	ld	r24, Y
  2a:	99 81       	ldd	r25, Y+1	; 0x01
  2c:	aa 81       	ldd	r26, Y+2	; 0x02
  2e:	bb 81       	ldd	r27, Y+3	; 0x03
  30:	21 15       	cp	r18, r1
  32:	31 05       	cpc	r19, r1
  34:	41 05       	cpc	r20, r1
  36:	51 05       	cpc	r21, r1
  38:	01 f4       	brne	.+0      	; 0x3a <_Z10md5_appendP11md5_state_sPKhm+0x3a>
  3a:	00 c0       	rjmp	.+0      	; 0x3c <_Z10md5_appendP11md5_state_sPKhm+0x3c>
  3c:	29 01       	movw	r4, r18
  3e:	3a 01       	movw	r6, r20
  40:	63 e0       	ldi	r22, 0x03	; 3
  42:	44 0c       	add	r4, r4
  44:	55 1c       	adc	r5, r5
  46:	66 1c       	adc	r6, r6
  48:	77 1c       	adc	r7, r7
  4a:	6a 95       	dec	r22
  4c:	01 f4       	brne	.+0      	; 0x4e <_Z10md5_appendP11md5_state_sPKhm+0x4e>
  4e:	ba 01       	movw	r22, r20
  50:	a9 01       	movw	r20, r18
  52:	ed e1       	ldi	r30, 0x1D	; 29
  54:	76 95       	lsr	r23
  56:	67 95       	ror	r22
  58:	57 95       	ror	r21
  5a:	47 95       	ror	r20
  5c:	ea 95       	dec	r30
  5e:	01 f4       	brne	.+0      	; 0x60 <_Z10md5_appendP11md5_state_sPKhm+0x60>
  60:	8c 80       	ldd	r8, Y+4	; 0x04
  62:	9d 80       	ldd	r9, Y+5	; 0x05
  64:	ae 80       	ldd	r10, Y+6	; 0x06
  66:	bf 80       	ldd	r11, Y+7	; 0x07
  68:	48 0d       	add	r20, r8
  6a:	59 1d       	adc	r21, r9
  6c:	6a 1d       	adc	r22, r10
  6e:	7b 1d       	adc	r23, r11
  70:	4c 83       	std	Y+4, r20	; 0x04
  72:	5d 83       	std	Y+5, r21	; 0x05
  74:	6e 83       	std	Y+6, r22	; 0x06
  76:	7f 83       	std	Y+7, r23	; 0x07
  78:	53 01       	movw	r10, r6
  7a:	42 01       	movw	r8, r4
  7c:	88 0e       	add	r8, r24
  7e:	99 1e       	adc	r9, r25
  80:	aa 1e       	adc	r10, r26
  82:	bb 1e       	adc	r11, r27
  84:	88 82       	st	Y, r8
  86:	99 82       	std	Y+1, r9	; 0x01
  88:	aa 82       	std	Y+2, r10	; 0x02
  8a:	bb 82       	std	Y+3, r11	; 0x03
  8c:	84 14       	cp	r8, r4
  8e:	95 04       	cpc	r9, r5
  90:	a6 04       	cpc	r10, r6
  92:	b7 04       	cpc	r11, r7
  94:	00 f4       	brcc	.+0      	; 0x96 <_Z10md5_appendP11md5_state_sPKhm+0x96>
  96:	4f 5f       	subi	r20, 0xFF	; 255
  98:	5f 4f       	sbci	r21, 0xFF	; 255
  9a:	6f 4f       	sbci	r22, 0xFF	; 255
  9c:	7f 4f       	sbci	r23, 0xFF	; 255
  9e:	4c 83       	std	Y+4, r20	; 0x04
  a0:	5d 83       	std	Y+5, r21	; 0x05
  a2:	6e 83       	std	Y+6, r22	; 0x06
  a4:	7f 83       	std	Y+7, r23	; 0x07
  a6:	53 e0       	ldi	r21, 0x03	; 3
  a8:	b6 95       	lsr	r27
  aa:	a7 95       	ror	r26
  ac:	97 95       	ror	r25
  ae:	87 95       	ror	r24
  b0:	5a 95       	dec	r21
  b2:	01 f4       	brne	.+0      	; 0xb4 <_Z10md5_appendP11md5_state_sPKhm+0xb4>
  b4:	8f 73       	andi	r24, 0x3F	; 63
  b6:	99 27       	eor	r25, r25
  b8:	aa 27       	eor	r26, r26
  ba:	bb 27       	eor	r27, r27
  bc:	88 2e       	mov	r8, r24
  be:	88 23       	and	r24, r24
  c0:	01 f0       	breq	.+0      	; 0xc2 <_Z10md5_appendP11md5_state_sPKhm+0xc2>
  c2:	8c 0d       	add	r24, r12
  c4:	9d 1d       	adc	r25, r13
  c6:	ae 1d       	adc	r26, r14
  c8:	bf 1d       	adc	r27, r15
  ca:	81 34       	cpi	r24, 0x41	; 65
  cc:	91 05       	cpc	r25, r1
  ce:	a1 05       	cpc	r26, r1
  d0:	b1 05       	cpc	r27, r1
  d2:	00 f0       	brcs	.+0      	; 0xd4 <_Z10md5_appendP11md5_state_sPKhm+0xd4>
  d4:	40 e4       	ldi	r20, 0x40	; 64
  d6:	74 2e       	mov	r7, r20
  d8:	78 18       	sub	r7, r8
  da:	00 c0       	rjmp	.+0      	; 0xdc <_Z10md5_appendP11md5_state_sPKhm+0xdc>
  dc:	7c 2c       	mov	r7, r12
  de:	a7 2c       	mov	r10, r7
  e0:	b1 2c       	mov	r11, r1
  e2:	91 2c       	mov	r9, r1
  e4:	94 01       	movw	r18, r8
  e6:	28 5e       	subi	r18, 0xE8	; 232
  e8:	3f 4f       	sbci	r19, 0xFF	; 255
  ea:	2c 0f       	add	r18, r28
  ec:	3d 1f       	adc	r19, r29
  ee:	47 2d       	mov	r20, r7
  f0:	50 e0       	ldi	r21, 0x00	; 0
  f2:	b8 01       	movw	r22, r16
  f4:	c9 01       	movw	r24, r18
  f6:	0e 94 00 00 	call	0	; 0x0 <_Z10md5_appendP11md5_state_sPKhm>
  fa:	8a 0c       	add	r8, r10
  fc:	9b 1c       	adc	r9, r11
  fe:	80 e4       	ldi	r24, 0x40	; 64
 100:	88 16       	cp	r8, r24
 102:	91 04       	cpc	r9, r1
 104:	04 f4       	brge	.+0      	; 0x106 <_Z10md5_appendP11md5_state_sPKhm+0x106>
 106:	00 c0       	rjmp	.+0      	; 0x108 <_Z10md5_appendP11md5_state_sPKhm+0x108>
 108:	0a 0d       	add	r16, r10
 10a:	1b 1d       	adc	r17, r11
 10c:	c7 18       	sub	r12, r7
 10e:	d1 08       	sbc	r13, r1
 110:	e1 08       	sbc	r14, r1
 112:	f1 08       	sbc	r15, r1
 114:	be 01       	movw	r22, r28
 116:	68 5e       	subi	r22, 0xE8	; 232
 118:	7f 4f       	sbci	r23, 0xFF	; 255
 11a:	ce 01       	movw	r24, r28
 11c:	0e 94 00 00 	call	0	; 0x0 <_Z10md5_appendP11md5_state_sPKhm>
 120:	26 01       	movw	r4, r12
 122:	37 01       	movw	r6, r14
 124:	58 01       	movw	r10, r16
 126:	00 c0       	rjmp	.+0      	; 0x128 <_Z10md5_appendP11md5_state_sPKhm+0x128>
 128:	b5 01       	movw	r22, r10
 12a:	ce 01       	movw	r24, r28
 12c:	0e 94 00 00 	call	0	; 0x0 <_Z10md5_appendP11md5_state_sPKhm>
 130:	80 e4       	ldi	r24, 0x40	; 64
 132:	a8 0e       	add	r10, r24
 134:	b1 1c       	adc	r11, r1
 136:	80 e4       	ldi	r24, 0x40	; 64
 138:	48 1a       	sub	r4, r24
 13a:	51 08       	sbc	r5, r1
 13c:	61 08       	sbc	r6, r1
 13e:	71 08       	sbc	r7, r1
 140:	80 e4       	ldi	r24, 0x40	; 64
 142:	48 16       	cp	r4, r24
 144:	51 04       	cpc	r5, r1
 146:	61 04       	cpc	r6, r1
 148:	71 04       	cpc	r7, r1
 14a:	00 f4       	brcc	.+0      	; 0x14c <_Z10md5_appendP11md5_state_sPKhm+0x14c>
 14c:	d7 01       	movw	r26, r14
 14e:	c6 01       	movw	r24, r12
 150:	26 e0       	ldi	r18, 0x06	; 6
 152:	b6 95       	lsr	r27
 154:	a7 95       	ror	r26
 156:	97 95       	ror	r25
 158:	87 95       	ror	r24
 15a:	2a 95       	dec	r18
 15c:	01 f4       	brne	.+0      	; 0x15e <_Z10md5_appendP11md5_state_sPKhm+0x15e>
 15e:	36 e0       	ldi	r19, 0x06	; 6
 160:	88 0f       	add	r24, r24
 162:	99 1f       	adc	r25, r25
 164:	3a 95       	dec	r19
 166:	01 f4       	brne	.+0      	; 0x168 <_Z10md5_appendP11md5_state_sPKhm+0x168>
 168:	80 0f       	add	r24, r16
 16a:	91 1f       	adc	r25, r17
 16c:	b7 01       	movw	r22, r14
 16e:	a6 01       	movw	r20, r12
 170:	4f 73       	andi	r20, 0x3F	; 63
 172:	55 27       	eor	r21, r21
 174:	66 27       	eor	r22, r22
 176:	77 27       	eor	r23, r23
 178:	41 15       	cp	r20, r1
 17a:	51 05       	cpc	r21, r1
 17c:	61 05       	cpc	r22, r1
 17e:	71 05       	cpc	r23, r1
 180:	01 f0       	breq	.+0      	; 0x182 <_Z10md5_appendP11md5_state_sPKhm+0x182>
 182:	68 96       	adiw	r28, 0x18	; 24
 184:	bc 01       	movw	r22, r24
 186:	ce 01       	movw	r24, r28
 188:	df 91       	pop	r29
 18a:	cf 91       	pop	r28
 18c:	1f 91       	pop	r17
 18e:	0f 91       	pop	r16
 190:	ff 90       	pop	r15
 192:	ef 90       	pop	r14
 194:	df 90       	pop	r13
 196:	cf 90       	pop	r12
 198:	bf 90       	pop	r11
 19a:	af 90       	pop	r10
 19c:	9f 90       	pop	r9
 19e:	8f 90       	pop	r8
 1a0:	7f 90       	pop	r7
 1a2:	6f 90       	pop	r6
 1a4:	5f 90       	pop	r5
 1a6:	4f 90       	pop	r4
 1a8:	0c 94 00 00 	jmp	0	; 0x0 <_Z10md5_appendP11md5_state_sPKhm>
 1ac:	df 91       	pop	r29
 1ae:	cf 91       	pop	r28
 1b0:	1f 91       	pop	r17
 1b2:	0f 91       	pop	r16
 1b4:	ff 90       	pop	r15
 1b6:	ef 90       	pop	r14
 1b8:	df 90       	pop	r13
 1ba:	cf 90       	pop	r12
 1bc:	bf 90       	pop	r11
 1be:	af 90       	pop	r10
 1c0:	9f 90       	pop	r9
 1c2:	8f 90       	pop	r8
 1c4:	7f 90       	pop	r7
 1c6:	6f 90       	pop	r6
 1c8:	5f 90       	pop	r5
 1ca:	4f 90       	pop	r4
 1cc:	08 95       	ret

Disassembly of section .text._Z10md5_finishP11md5_state_sPh:

00000000 <_Z10md5_finishP11md5_state_sPh>:
   0:	ef 92       	push	r14
   2:	ff 92       	push	r15
   4:	0f 93       	push	r16
   6:	1f 93       	push	r17
   8:	cf 93       	push	r28
   a:	df 93       	push	r29
   c:	cd b7       	in	r28, 0x3d	; 61
   e:	de b7       	in	r29, 0x3e	; 62
  10:	28 97       	sbiw	r28, 0x08	; 8
  12:	0f b6       	in	r0, 0x3f	; 63
  14:	f8 94       	cli
  16:	de bf       	out	0x3e, r29	; 62
  18:	0f be       	out	0x3f, r0	; 63
  1a:	cd bf       	out	0x3d, r28	; 61
  1c:	8c 01       	movw	r16, r24
  1e:	7b 01       	movw	r14, r22
  20:	be 01       	movw	r22, r28
  22:	6f 5f       	subi	r22, 0xFF	; 255
  24:	7f 4f       	sbci	r23, 0xFF	; 255
  26:	20 e0       	ldi	r18, 0x00	; 0
  28:	30 e0       	ldi	r19, 0x00	; 0
  2a:	f9 01       	movw	r30, r18
  2c:	ec 7f       	andi	r30, 0xFC	; 252
  2e:	e0 0f       	add	r30, r16
  30:	f1 1f       	adc	r31, r17
  32:	a9 01       	movw	r20, r18
  34:	43 70       	andi	r20, 0x03	; 3
  36:	55 27       	eor	r21, r21
  38:	a3 e0       	ldi	r26, 0x03	; 3
  3a:	44 0f       	add	r20, r20
  3c:	55 1f       	adc	r21, r21
  3e:	aa 95       	dec	r26
  40:	01 f4       	brne	.+0      	; 0x42 <_Z10md5_finishP11md5_state_sPh+0x42>
  42:	80 81       	ld	r24, Z
  44:	91 81       	ldd	r25, Z+1	; 0x01
  46:	a2 81       	ldd	r26, Z+2	; 0x02
  48:	b3 81       	ldd	r27, Z+3	; 0x03
  4a:	00 c0       	rjmp	.+0      	; 0x4c <_Z10md5_finishP11md5_state_sPh+0x4c>
  4c:	b6 95       	lsr	r27
  4e:	a7 95       	ror	r26
  50:	97 95       	ror	r25
  52:	87 95       	ror	r24
  54:	4a 95       	dec	r20
  56:	02 f4       	brpl	.+0      	; 0x58 <_Z10md5_finishP11md5_state_sPh+0x58>
  58:	fb 01       	movw	r30, r22
  5a:	81 93       	st	Z+, r24
  5c:	bf 01       	movw	r22, r30
  5e:	2f 5f       	subi	r18, 0xFF	; 255
  60:	3f 4f       	sbci	r19, 0xFF	; 255
  62:	28 30       	cpi	r18, 0x08	; 8
  64:	31 05       	cpc	r19, r1
  66:	01 f4       	brne	.+0      	; 0x68 <_Z10md5_finishP11md5_state_sPh+0x68>
  68:	f8 01       	movw	r30, r16
  6a:	80 81       	ld	r24, Z
  6c:	91 81       	ldd	r25, Z+1	; 0x01
  6e:	a2 81       	ldd	r26, Z+2	; 0x02
  70:	b3 81       	ldd	r27, Z+3	; 0x03
  72:	23 e0       	ldi	r18, 0x03	; 3
  74:	b6 95       	lsr	r27
  76:	a7 95       	ror	r26
  78:	97 95       	ror	r25
  7a:	87 95       	ror	r24
  7c:	2a 95       	dec	r18
  7e:	01 f4       	brne	.+0      	; 0x80 <_Z10md5_finishP11md5_state_sPh+0x80>
  80:	27 e3       	ldi	r18, 0x37	; 55
  82:	30 e0       	ldi	r19, 0x00	; 0
  84:	40 e0       	ldi	r20, 0x00	; 0
  86:	50 e0       	ldi	r21, 0x00	; 0
  88:	28 1b       	sub	r18, r24
  8a:	39 0b       	sbc	r19, r25
  8c:	4a 0b       	sbc	r20, r26
  8e:	5b 0b       	sbc	r21, r27
  90:	2f 73       	andi	r18, 0x3F	; 63
  92:	33 27       	eor	r19, r19
  94:	44 27       	eor	r20, r20
  96:	55 27       	eor	r21, r21
  98:	2f 5f       	subi	r18, 0xFF	; 255
  9a:	3f 4f       	sbci	r19, 0xFF	; 255
  9c:	4f 4f       	sbci	r20, 0xFF	; 255
  9e:	5f 4f       	sbci	r21, 0xFF	; 255
  a0:	60 e0       	ldi	r22, 0x00	; 0
  a2:	70 e0       	ldi	r23, 0x00	; 0
  a4:	c8 01       	movw	r24, r16
  a6:	0e 94 00 00 	call	0	; 0x0 <_Z10md5_finishP11md5_state_sPh>
  aa:	28 e0       	ldi	r18, 0x08	; 8
  ac:	30 e0       	ldi	r19, 0x00	; 0
  ae:	40 e0       	ldi	r20, 0x00	; 0
  b0:	50 e0       	ldi	r21, 0x00	; 0
  b2:	be 01       	movw	r22, r28
  b4:	6f 5f       	subi	r22, 0xFF	; 255
  b6:	7f 4f       	sbci	r23, 0xFF	; 255
  b8:	c8 01       	movw	r24, r16
  ba:	0e 94 00 00 	call	0	; 0x0 <_Z10md5_finishP11md5_state_sPh>
  be:	f7 01       	movw	r30, r14
  c0:	20 e0       	ldi	r18, 0x00	; 0
  c2:	30 e0       	ldi	r19, 0x00	; 0
  c4:	d9 01       	movw	r26, r18
  c6:	ac 7f       	andi	r26, 0xFC	; 252
  c8:	a0 0f       	add	r26, r16
  ca:	b1 1f       	adc	r27, r17
  cc:	a9 01       	movw	r20, r18
  ce:	43 70       	andi	r20, 0x03	; 3
  d0:	55 27       	eor	r21, r21
  d2:	83 e0       	ldi	r24, 0x03	; 3
  d4:	44 0f       	add	r20, r20
  d6:	55 1f       	adc	r21, r21
  d8:	8a 95       	dec	r24
  da:	01 f4       	brne	.+0      	; 0xdc <_Z10md5_finishP11md5_state_sPh+0xdc>
  dc:	18 96       	adiw	r26, 0x08	; 8
  de:	8d 91       	ld	r24, X+
  e0:	9d 91       	ld	r25, X+
  e2:	0d 90       	ld	r0, X+
  e4:	bc 91       	ld	r27, X
  e6:	a0 2d       	mov	r26, r0
  e8:	00 c0       	rjmp	.+0      	; 0xea <_Z10md5_finishP11md5_state_sPh+0xea>
  ea:	b6 95       	lsr	r27
  ec:	a7 95       	ror	r26
  ee:	97 95       	ror	r25
  f0:	87 95       	ror	r24
  f2:	4a 95       	dec	r20
  f4:	02 f4       	brpl	.+0      	; 0xf6 <_Z10md5_finishP11md5_state_sPh+0xf6>
  f6:	81 93       	st	Z+, r24
  f8:	2f 5f       	subi	r18, 0xFF	; 255
  fa:	3f 4f       	sbci	r19, 0xFF	; 255
  fc:	20 31       	cpi	r18, 0x10	; 16
  fe:	31 05       	cpc	r19, r1
 100:	01 f4       	brne	.+0      	; 0x102 <_Z10md5_finishP11md5_state_sPh+0x102>
 102:	28 96       	adiw	r28, 0x08	; 8
 104:	0f b6       	in	r0, 0x3f	; 63
 106:	f8 94       	cli
 108:	de bf       	out	0x3e, r29	; 62
 10a:	0f be       	out	0x3f, r0	; 63
 10c:	cd bf       	out	0x3d, r28	; 61
 10e:	df 91       	pop	r29
 110:	cf 91       	pop	r28
 112:	1f 91       	pop	r17
 114:	0f 91       	pop	r16
 116:	ff 90       	pop	r15
 118:	ef 90       	pop	r14
 11a:	08 95       	ret
